 rcu_dylib

 Timestamp is 5bcd06c4 (Mon Oct 22 01:07:48 2018)

 Preferred load address is 0000000180000000

 Start         Length     Name                   Class
 0001:00000000 00000060H .text$di                CODE
 0001:00000060 00006f20H .text$mn                CODE
 0001:00006f80 00000020H .text$mn$00             CODE
 0001:00006fa0 00000120H .text$x                 CODE
 0001:000070c0 0000002cH .text$yd                CODE
 0002:00000000 00000260H .idata$5                DATA
 0002:00000260 00000010H .00cfg                  DATA
 0002:00000270 00000008H .CRT$XCA                DATA
 0002:00000278 00000018H .CRT$XCU                DATA
 0002:00000290 00000008H .CRT$XCZ                DATA
 0002:00000298 00000008H .CRT$XIA                DATA
 0002:000002a0 00000008H .CRT$XIZ                DATA
 0002:000002a8 00000008H .CRT$XPA                DATA
 0002:000002b0 00000008H .CRT$XPZ                DATA
 0002:000002b8 00000008H .CRT$XTA                DATA
 0002:000002c0 00000010H .CRT$XTZ                DATA
 0002:000002c8 00000000H .gfids$y                DATA
 0002:000002d0 00000770H .rdata                  DATA
 0002:00000a40 000002f8H .rdata$zzzdbg           DATA
 0002:00000d38 00000008H .rtc$IAA                DATA
 0002:00000d40 00000008H .rtc$IZZ                DATA
 0002:00000d48 00000008H .rtc$TAA                DATA
 0002:00000d50 00000008H .rtc$TZZ                DATA
 0002:00000d58 00000be8H .xdata                  DATA
 0002:00001940 00000188H .edata                  DATA
 0002:00001ac8 000000b4H .idata$2                DATA
 0002:00001b7c 00000014H .idata$3                DATA
 0002:00001b90 00000260H .idata$4                DATA
 0002:00001df0 00000738H .idata$6                DATA
 0003:00000000 00000050H .data                   DATA
 0003:00000050 00000608H .bss                    DATA
 0004:00000000 00000810H .pdata                  DATA
 0005:00000000 000006e0H _RDATA                  DATA
 0006:00000000 00000060H .rsrc$01                DATA
 0006:00000060 00000180H .rsrc$02                DATA

  Address         Publics by Value              Rva+Base               Lib:Object

 0000:00000000       ___safe_se_handler_table   0000000000000000     <absolute>
 0000:00000000       __hybrid_code_map_count    0000000000000000     <absolute>
 0000:00000000       __dynamic_value_reloc_table 0000000000000000     <absolute>
 0000:00000000       ___safe_se_handler_count   0000000000000000     <absolute>
 0000:00000000       __guard_iat_count          0000000000000000     <absolute>
 0000:00000000       __guard_fids_table         0000000000000000     <absolute>
 0000:00000000       __hybrid_code_map          0000000000000000     <absolute>
 0000:00000000       __guard_longjmp_table      0000000000000000     <absolute>
 0000:00000000       __volatile_metadata        0000000000000000     <absolute>
 0000:00000000       __guard_longjmp_count      0000000000000000     <absolute>
 0000:00000000       __guard_fids_count         0000000000000000     <absolute>
 0000:00000000       __hybrid_auxiliary_iat     0000000000000000     <absolute>
 0000:00000000       __guard_iat_table          0000000000000000     <absolute>
 0000:00000000       __enclave_config           0000000000000000     <absolute>
 0000:00000100       __guard_flags              0000000000000100     <absolute>
 0000:00000000       __ImageBase                0000000180000000     <linker-defined>
 0001:00000060       rcu_create_allocator       0000000180001060 f   allocator_c_api.obj
 0001:00000090       rcu_destroy_allocator      0000000180001090 f   allocator_c_api.obj
 0001:000000b0       rcu_create_raycast_manager 00000001800010b0 f   raycast_manager_c_api.obj
 0001:00000100       rcu_destroy_raycast_manager 0000000180001100 f   raycast_manager_c_api.obj
 0001:00000140       rcu_raycast_manager_release 0000000180001140 f   raycast_manager_c_api.obj
 0001:00000180       rcu_raycast_manager_run    0000000180001180 f   raycast_manager_c_api.obj
 0001:000001f0       rcu_raycast_manager_setup  00000001800011f0 f   raycast_manager_c_api.obj
 0001:00000250       rcu_create_scene           0000000180001250 f   scene_c_api.obj
 0001:000002a0       rcu_destroy_scene          00000001800012a0 f   scene_c_api.obj
 0001:000002e0       rcu_scene_append_geometry  00000001800012e0 f   scene_c_api.obj
 0001:00000340       ??0?$Vector@I@bento@@QEAA@AEAVIAllocator@1@@Z 0000000180001340 f i rcu_sdk:raycast_manager.obj
 0001:00000360       ??0?$Vector@URTCRayHit16@@@bento@@QEAA@AEAVIAllocator@1@@Z 0000000180001360 f i rcu_sdk:raycast_manager.obj
 0001:00000380       ??0?$Vector@URTCRayHit@@@bento@@QEAA@AEAVIAllocator@1@@Z 0000000180001380 f i rcu_sdk:raycast_manager.obj
 0001:000003a0       ??0TRaycastManager@rcu@@QEAA@AEAVIAllocator@bento@@@Z 00000001800013a0 f   rcu_sdk:raycast_manager.obj
 0001:00000430       ??1?$Vector@I@bento@@QEAA@XZ 0000000180001430 f i rcu_sdk:raycast_manager.obj
 0001:00000470       ??1?$Vector@URTCRayHit16@@@bento@@QEAA@XZ 0000000180001470 f i rcu_sdk:raycast_manager.obj
 0001:000004b0       ??1?$Vector@URTCRayHit@@@bento@@QEAA@XZ 00000001800014b0 f i rcu_sdk:raycast_manager.obj
 0001:000004f0       ??1TRaycastManager@rcu@@QEAA@XZ 00000001800014f0 f   rcu_sdk:raycast_manager.obj
 0001:00000570       ?clear@?$Vector@I@bento@@QEAAXXZ 0000000180001570 f i rcu_sdk:raycast_manager.obj
 0001:00000580       ?clear@?$Vector@URTCRayHit16@@@bento@@QEAAXXZ 0000000180001580 f i rcu_sdk:raycast_manager.obj
 0001:00000590       ?clear@?$Vector@URTCRayHit@@@bento@@QEAAXXZ 0000000180001590 f i rcu_sdk:raycast_manager.obj
 0001:000005a0       ?error_handler@rcu@@YAXPEAXW4RTCError@@PEBD@Z 00000001800015a0 f   rcu_sdk:raycast_manager.obj
 0001:00000680       ?free@?$Vector@I@bento@@QEAAXXZ 0000000180001680 f i rcu_sdk:raycast_manager.obj
 0001:000006b0       ?free@?$Vector@URTCRayHit16@@@bento@@QEAAXXZ 00000001800016b0 f i rcu_sdk:raycast_manager.obj
 0001:000006e0       ?free@?$Vector@URTCRayHit@@@bento@@QEAAXXZ 00000001800016e0 f i rcu_sdk:raycast_manager.obj
 0001:00000710       ?release@TRaycastManager@rcu@@QEAAXXZ 0000000180001710 f   rcu_sdk:raycast_manager.obj
 0001:00000740       ?reserve@?$Vector@I@bento@@QEAAXI@Z 0000000180001740 f i rcu_sdk:raycast_manager.obj
 0001:000007b0       ?reserve@?$Vector@URTCRayHit16@@@bento@@QEAAXI@Z 00000001800017b0 f i rcu_sdk:raycast_manager.obj
 0001:00000830       ?reserve@?$Vector@URTCRayHit@@@bento@@QEAAXI@Z 0000000180001830 f i rcu_sdk:raycast_manager.obj
 0001:000008b0       ?resize@?$Vector@I@bento@@QEAAXI@Z 00000001800018b0 f i rcu_sdk:raycast_manager.obj
 0001:00000950       ?resize@?$Vector@URTCRayHit16@@@bento@@QEAAXI@Z 0000000180001950 f i rcu_sdk:raycast_manager.obj
 0001:000009f0       ?resize@?$Vector@URTCRayHit@@@bento@@QEAAXI@Z 00000001800019f0 f i rcu_sdk:raycast_manager.obj
 0001:00001410       ?run@TRaycastManager@rcu@@QEAAXPEBUTRay@2@PEAUTIntersection@2@I_N@Z 0000000180002410 f   rcu_sdk:raycast_manager.obj
 0001:00001c90       ?setup@TRaycastManager@rcu@@QEAAXAEBUTScene@2@@Z 0000000180002c90 f   rcu_sdk:raycast_manager.obj
 0001:00001e30       ??0?$Vector@UIVector3@bento@@@bento@@QEAA@AEAVIAllocator@1@@Z 0000000180002e30 f i rcu_sdk:scene.obj
 0001:00001e50       ??0?$Vector@UTGeometry@rcu@@@bento@@QEAA@AEAVIAllocator@1@@Z 0000000180002e50 f i rcu_sdk:scene.obj
 0001:00001e70       ??0?$Vector@UVector3@bento@@@bento@@QEAA@AEAVIAllocator@1@@Z 0000000180002e70 f i rcu_sdk:scene.obj
 0001:00001e90       ??0TScene@rcu@@QEAA@AEAVIAllocator@bento@@@Z 0000000180002e90 f   rcu_sdk:scene.obj
 0001:00001ed0       ??1?$Vector@D@bento@@QEAA@XZ 0000000180002ed0 f i rcu_sdk:scene.obj
 0001:00001f10       ??1?$Vector@UIVector3@bento@@@bento@@QEAA@XZ 0000000180002f10 f i rcu_sdk:scene.obj
 0001:00001f50       ??1?$Vector@UTGeometry@rcu@@@bento@@QEAA@XZ 0000000180002f50 f i rcu_sdk:scene.obj
 0001:00001ff0       ??1?$Vector@UVector3@bento@@@bento@@QEAA@XZ 0000000180002ff0 f i rcu_sdk:scene.obj
 0001:00002030       ?append_geometry@rcu@@YAXAEAUTScene@1@IIPEAMIPEAHIPEBM@Z 0000000180003030 f   rcu_sdk:scene.obj
 0001:000022d0       ?clear@?$Vector@D@bento@@QEAAXXZ 00000001800032d0 f i rcu_sdk:scene.obj
 0001:000022e0       ?clear@?$Vector@UIVector3@bento@@@bento@@QEAAXXZ 00000001800032e0 f i rcu_sdk:scene.obj
 0001:000022f0       ?clear@?$Vector@UTGeometry@rcu@@@bento@@QEAAXXZ 00000001800032f0 f i rcu_sdk:scene.obj
 0001:00002390       ?clear@?$Vector@UVector3@bento@@@bento@@QEAAXXZ 0000000180003390 f i rcu_sdk:scene.obj
 0001:000023a0       ?extend@?$Vector@UTGeometry@rcu@@@bento@@QEAAAEAUTGeometry@rcu@@XZ 00000001800033a0 f i rcu_sdk:scene.obj
 0001:00002460       ?free@?$Vector@D@bento@@QEAAXXZ 0000000180003460 f i rcu_sdk:scene.obj
 0001:00002490       ?free@?$Vector@UIVector3@bento@@@bento@@QEAAXXZ 0000000180003490 f i rcu_sdk:scene.obj
 0001:000024c0       ?free@?$Vector@UTGeometry@rcu@@@bento@@QEAAXXZ 00000001800034c0 f i rcu_sdk:scene.obj
 0001:00002560       ?free@?$Vector@UVector3@bento@@@bento@@QEAAXXZ 0000000180003560 f i rcu_sdk:scene.obj
 0001:00002590       ?reserve@?$Vector@UIVector3@bento@@@bento@@QEAAXI@Z 0000000180003590 f i rcu_sdk:scene.obj
 0001:00002610       ?reserve@?$Vector@UTGeometry@rcu@@@bento@@QEAAXI@Z 0000000180003610 f i rcu_sdk:scene.obj
 0001:00002680       ?reserve@?$Vector@UVector3@bento@@@bento@@QEAAXI@Z 0000000180003680 f i rcu_sdk:scene.obj
 0001:00002700       ?resize@?$Vector@UIVector3@bento@@@bento@@QEAAXI@Z 0000000180003700 f i rcu_sdk:scene.obj
 0001:000027a0       ?resize@?$Vector@UVector3@bento@@@bento@@QEAAXI@Z 00000001800037a0 f i rcu_sdk:scene.obj
 0001:00002840       ??0SystemAllocator@bento@@QEAA@XZ 0000000180003840 f   bento_sdk:system_allocator.obj
 0001:00002870       ??1SystemAllocator@bento@@UEAA@XZ 0000000180003870 f   bento_sdk:system_allocator.obj
 0001:00002880       ??_ESystemAllocator@bento@@UEAAPEAXI@Z 0000000180003880 f i bento_sdk:system_allocator.obj
 0001:00002880       ??_GSystemAllocator@bento@@UEAAPEAXI@Z 0000000180003880 f i bento_sdk:system_allocator.obj
 0001:000028c0       ?allocate@SystemAllocator@bento@@UEAAPEAX_K0@Z 00000001800038c0 f   bento_sdk:system_allocator.obj
 0001:000028d0       ?deallocate@SystemAllocator@bento@@UEAAXPEAX@Z 00000001800038d0 f   bento_sdk:system_allocator.obj
 0001:000028e0       ?reallocate@SystemAllocator@bento@@UEAAPEAXPEAX_K11@Z 00000001800038e0 f   bento_sdk:system_allocator.obj
 0001:00002960       ?__handle_fail@bento@@YAXPEBD0H@Z 0000000180003960 f   bento_sdk:security.obj
 0001:000029c0       ?print_trace@bento@@YAXXZ  00000001800039c0 f   bento_sdk:security.obj
 0001:000029d0       ?default_logger@bento@@YAPEAVILogger@1@XZ 00000001800039d0 f   bento_sdk:log.obj
 0001:000029e0       ?reset_logger@bento@@YAXXZ 00000001800039e0 f   bento_sdk:log.obj
 0001:000029f0       ?set_default_logger@bento@@YAXPEAVILogger@1@@Z 00000001800039f0 f   bento_sdk:log.obj
 0001:00002a00       ??$pack_bytes@I@bento@@YAXAEAV?$Vector@D@0@AEBI@Z 0000000180003a00 f i bento_sdk:dynamic_string.obj
 0001:00002a10       ??$pack_vector_bytes@D@bento@@YAXAEAV?$Vector@D@0@AEBV10@@Z 0000000180003a10 f i bento_sdk:dynamic_string.obj
 0001:00002a60       ??$unpack_bytes@I@bento@@YAXAEAPEBDAEAI@Z 0000000180003a60 f i bento_sdk:dynamic_string.obj
 0001:00002a70       ??$unpack_vector_bytes@D@bento@@YAXAEAPEBDAEAV?$Vector@D@0@@Z 0000000180003a70 f i bento_sdk:dynamic_string.obj
 0001:00002ac0       ??0?$Vector@D@bento@@QEAA@AEAVIAllocator@1@@Z 0000000180003ac0 f i bento_sdk:dynamic_string.obj
 0001:00002ae0       ??0DynamicString@bento@@QEAA@AEAVIAllocator@1@@Z 0000000180003ae0 f   bento_sdk:dynamic_string.obj
 0001:00002b80       ??0DynamicString@bento@@QEAA@AEAVIAllocator@1@I@Z 0000000180003b80 f   bento_sdk:dynamic_string.obj
 0001:00002bd0       ??0DynamicString@bento@@QEAA@AEAVIAllocator@1@PEBD@Z 0000000180003bd0 f   bento_sdk:dynamic_string.obj
 0001:00002c50       ??0DynamicString@bento@@QEAA@AEBV01@@Z 0000000180003c50 f   bento_sdk:dynamic_string.obj
 0001:00002cd0       ??4DynamicString@bento@@QEAAAEAV01@AEBV01@@Z 0000000180003cd0 f   bento_sdk:dynamic_string.obj
 0001:00002d30       ??4DynamicString@bento@@QEAAAEAV01@PEBD@Z 0000000180003d30 f   bento_sdk:dynamic_string.obj
 0001:00002d90       ??8DynamicString@bento@@QEBA_NPEBD@Z 0000000180003d90 f   bento_sdk:dynamic_string.obj
 0001:00002dc0       ??9DynamicString@bento@@QEBA_NPEBD@Z 0000000180003dc0 f   bento_sdk:dynamic_string.obj
 0001:00002df0       ??YDynamicString@bento@@QEAAAEAV01@AEBV01@@Z 0000000180003df0 f   bento_sdk:dynamic_string.obj
 0001:00002e60       ??YDynamicString@bento@@QEAAAEAV01@PEBD@Z 0000000180003e60 f   bento_sdk:dynamic_string.obj
 0001:00002ec0       ?find_last_of@bento@@YAIPEBDD@Z 0000000180003ec0 f   bento_sdk:dynamic_string.obj
 0001:00002f00       ?pack_type@bento@@YAXAEAV?$Vector@D@1@AEBVDynamicString@1@@Z 0000000180003f00 f   bento_sdk:dynamic_string.obj
 0001:00002f50       ?reserve@?$Vector@D@bento@@QEAAXI@Z 0000000180003f50 f i bento_sdk:dynamic_string.obj
 0001:00002fc0       ?resize@?$Vector@D@bento@@QEAAXI@Z 0000000180003fc0 f i bento_sdk:dynamic_string.obj
 0001:00003060       ?resize@DynamicString@bento@@QEAAXI@Z 0000000180004060 f   bento_sdk:dynamic_string.obj
 0001:00003100       ?size@DynamicString@bento@@QEBAIXZ 0000000180004100 f   bento_sdk:dynamic_string.obj
 0001:00003110       ?strlen32@bento@@YAIPEBD@Z 0000000180004110 f   bento_sdk:dynamic_string.obj
 0001:00003130       ?substr@string@bento@@YA?AVDynamicString@2@AEBV32@II@Z 0000000180004130 f   bento_sdk:dynamic_string.obj
 0001:000031d0       ?to_lower_case@string@bento@@YAXAEAVDynamicString@2@@Z 00000001800041d0 f   bento_sdk:dynamic_string.obj
 0001:00003220       ?unpack_type@bento@@YAXAEAPEBDAEAVDynamicString@1@@Z 0000000180004220 f   bento_sdk:dynamic_string.obj
 0001:00003270       ??$?6U?$char_traits@D@std@@@std@@YAAEAV?$basic_ostream@DU?$char_traits@D@std@@@0@AEAV10@PEBD@Z 0000000180004270 f i bento_sdk:matrix4.obj
 0001:00003440       ??1_Sentry_base@?$basic_ostream@DU?$char_traits@D@std@@@std@@QEAA@XZ 0000000180004440 f i bento_sdk:matrix4.obj
 0001:00003470       ??1sentry@?$basic_ostream@DU?$char_traits@D@std@@@std@@QEAA@XZ 0000000180004470 f i bento_sdk:matrix4.obj
 0001:000034b0       ??6bento@@YAAEAV?$basic_ostream@DU?$char_traits@D@std@@@std@@AEAV12@AEBUMatrix4@0@@Z 00000001800044b0 f   bento_sdk:matrix4.obj
 0001:000036b0       ??Dbento@@YA?AUMatrix4@0@AEBU10@0@Z 00000001800046b0 f   bento_sdk:matrix4.obj
 0001:00003ac0       ??Dbento@@YA?AUVector3@0@AEBUMatrix4@0@AEBU10@@Z 0000000180004ac0 f   bento_sdk:matrix4.obj
 0001:00003b60       ??Dbento@@YA?AUVector4@0@AEBUMatrix4@0@AEBU10@@Z 0000000180004b60 f   bento_sdk:matrix4.obj
 0001:00003c50       ?AsPerspective@bento@@YAXAEAUMatrix4@1@MMMM@Z 0000000180004c50 f   bento_sdk:matrix4.obj
 0001:00003d10       ?Det@bento@@YAMAEBUMatrix4@1@@Z 0000000180004d10 f   bento_sdk:matrix4.obj
 0001:00003d40       ?GetTranslate@bento@@YA?AUVector3@1@AEBUMatrix4@1@@Z 0000000180004d40 f   bento_sdk:matrix4.obj
 0001:00003d70       ?Inverse3x3@bento@@YA?AUMatrix3@1@AEBUMatrix4@1@@Z 0000000180004d70 f   bento_sdk:matrix4.obj
 0001:00003f70       ?Inverse@bento@@YA?AUMatrix4@1@AEBU21@@Z 0000000180004f70 f   bento_sdk:matrix4.obj
 0001:000047c0       ?ResetToZero@bento@@YAXAEAUMatrix4@1@@Z 00000001800057c0 f   bento_sdk:matrix4.obj
 0001:000047f0       ?Rotate@bento@@YA?AUMatrix4@1@MAEBUVector3@1@@Z 00000001800057f0 f   bento_sdk:matrix4.obj
 0001:00004a20       ?RotateXAxis@bento@@YA?AUMatrix4@1@M@Z 0000000180005a20 f   bento_sdk:matrix4.obj
 0001:00004a90       ?RotateYAxis@bento@@YA?AUMatrix4@1@M@Z 0000000180005a90 f   bento_sdk:matrix4.obj
 0001:00004b00       ?RotateZAxis@bento@@YA?AUMatrix4@1@M@Z 0000000180005b00 f   bento_sdk:matrix4.obj
 0001:00004b70       ?Set@bento@@YAAEAUMatrix4@1@AEAU21@AEBU21@@Z 0000000180005b70 f   bento_sdk:matrix4.obj
 0001:00004be0       ?SetIdentity@bento@@YAXAEAUMatrix4@1@@Z 0000000180005be0 f   bento_sdk:matrix4.obj
 0001:00004c20       ?ToTable@bento@@YAXAEBUMatrix4@1@PEAM@Z 0000000180005c20 f   bento_sdk:matrix4.obj
 0001:00004c80       ?Translate_M4@bento@@YA?AUMatrix4@1@AEBUVector3@1@@Z 0000000180005c80 f   bento_sdk:matrix4.obj
 0001:00004cd0       ?Translate_M4@bento@@YA?AUMatrix4@1@AEBUVector4@1@@Z 0000000180005cd0 f   bento_sdk:matrix4.obj
 0001:00004d20       ?WRow@bento@@YAPEBUVector4@1@AEBUMatrix4@1@@Z 0000000180005d20 f   bento_sdk:matrix4.obj
 0001:00004d30       ?XAxis@bento@@YA?AUVector3@1@AEBUMatrix4@1@@Z 0000000180005d30 f   bento_sdk:matrix4.obj
 0001:00004d60       ?XRow@bento@@YAPEBUVector4@1@AEBUMatrix4@1@@Z 0000000180005d60 f   bento_sdk:matrix4.obj
 0001:00004d70       ?YAxis@bento@@YA?AUVector3@1@AEBUMatrix4@1@@Z 0000000180005d70 f   bento_sdk:matrix4.obj
 0001:00004da0       ?YRow@bento@@YAPEBUVector4@1@AEBUMatrix4@1@@Z 0000000180005da0 f   bento_sdk:matrix4.obj
 0001:00004db0       ?ZAxis@bento@@YA?AUVector3@1@AEBUMatrix4@1@@Z 0000000180005db0 f   bento_sdk:matrix4.obj
 0001:00004de0       ?ZRow@bento@@YAPEBUVector4@1@AEBUMatrix4@1@@Z 0000000180005de0 f   bento_sdk:matrix4.obj
 0001:00004df0       ?matrix4@bento@@YAXAEAUMatrix4@1@PEAM@Z 0000000180005df0 f   bento_sdk:matrix4.obj
 0001:00004e10       ?transpose@bento@@YA?AUMatrix4@1@AEBU21@@Z 0000000180005e10 f   bento_sdk:matrix4.obj
 0001:00004ea0       ??0IAllocator@bento@@QEAA@XZ 0000000180005ea0 f   bento_sdk:allocator.obj
 0001:00004eb0       ??1IAllocator@bento@@UEAA@XZ 0000000180005eb0 f   bento_sdk:allocator.obj
 0001:00004ec0       ??_EIAllocator@bento@@UEAAPEAXI@Z 0000000180005ec0 f i bento_sdk:allocator.obj
 0001:00004ec0       ??_GIAllocator@bento@@UEAAPEAXI@Z 0000000180005ec0 f i bento_sdk:allocator.obj
 0001:00004ef0       ??0SystemLogger@bento@@QEAA@XZ 0000000180005ef0 f   bento_sdk:system_logger.obj
 0001:00004f00       ??1ILogger@bento@@UEAA@XZ  0000000180005f00 f i bento_sdk:system_logger.obj
 0001:00004f10       ??1SystemLogger@bento@@UEAA@XZ 0000000180005f10 f   bento_sdk:system_logger.obj
 0001:00004f20       ??_GILogger@bento@@UEAAPEAXI@Z 0000000180005f20 f i bento_sdk:system_logger.obj
 0001:00004f20       ??_EILogger@bento@@UEAAPEAXI@Z 0000000180005f20 f i bento_sdk:system_logger.obj
 0001:00004f50       ??_GSystemLogger@bento@@UEAAPEAXI@Z 0000000180005f50 f i bento_sdk:system_logger.obj
 0001:00004f50       ??_ESystemLogger@bento@@UEAAPEAXI@Z 0000000180005f50 f i bento_sdk:system_logger.obj
 0001:00004f80       ?level_to_string@bento@@YAPEBDW4Type@LogLevel@1@@Z 0000000180005f80 f   bento_sdk:system_logger.obj
 0001:00004fc0       ?log@SystemLogger@bento@@UEAAXW4Type@LogLevel@2@PEBD1@Z 0000000180005fc0 f   bento_sdk:system_logger.obj
 0001:00005070       ?pack_buffer@bento@@YAXAEAV?$Vector@D@1@IPEBD@Z 0000000180006070 f   bento_sdk:stream.obj
 0001:00005120       ?unpack_buffer@bento@@YAXAEAPEBDIPEAD@Z 0000000180006120 f   bento_sdk:stream.obj
 0001:00005152       rtcNewDevice               0000000180006152 f   embree3:embree3.dll
 0001:00005158       rtcReleaseDevice           0000000180006158 f   embree3:embree3.dll
 0001:0000515e       rtcGetDeviceError          000000018000615e f   embree3:embree3.dll
 0001:00005164       rtcSetDeviceErrorFunction  0000000180006164 f   embree3:embree3.dll
 0001:0000516a       rtcNewGeometry             000000018000616a f   embree3:embree3.dll
 0001:00005170       rtcReleaseGeometry         0000000180006170 f   embree3:embree3.dll
 0001:00005176       rtcCommitGeometry          0000000180006176 f   embree3:embree3.dll
 0001:0000517c       rtcSetNewGeometryBuffer    000000018000617c f   embree3:embree3.dll
 0001:00005182       rtcNewScene                0000000180006182 f   embree3:embree3.dll
 0001:00005188       rtcReleaseScene            0000000180006188 f   embree3:embree3.dll
 0001:0000518e       rtcAttachGeometry          000000018000618e f   embree3:embree3.dll
 0001:00005194       rtcCommitScene             0000000180006194 f   embree3:embree3.dll
 0001:0000519a       rtcIntersect1              000000018000619a f   embree3:embree3.dll
 0001:000051a0       rtcIntersect16             00000001800061a0 f   embree3:embree3.dll
 0001:000051a6       ?sputc@?$basic_streambuf@DU?$char_traits@D@std@@@std@@QEAAHD@Z 00000001800061a6 f   msvcprt:MSVCP140.dll
 0001:000051ac       ?sputn@?$basic_streambuf@DU?$char_traits@D@std@@@std@@QEAA_JPEBD_J@Z 00000001800061ac f   msvcprt:MSVCP140.dll
 0001:000051b2       ?setstate@?$basic_ios@DU?$char_traits@D@std@@@std@@QEAAXH_N@Z 00000001800061b2 f   msvcprt:MSVCP140.dll
 0001:000051b8       ?_Osfx@?$basic_ostream@DU?$char_traits@D@std@@@std@@QEAAXXZ 00000001800061b8 f   msvcprt:MSVCP140.dll
 0001:000051be       ??6?$basic_ostream@DU?$char_traits@D@std@@@std@@QEAAAEAV01@M@Z 00000001800061be f   msvcprt:MSVCP140.dll
 0001:000051c4       ?flush@?$basic_ostream@DU?$char_traits@D@std@@@std@@QEAAAEAV12@XZ 00000001800061c4 f   msvcprt:MSVCP140.dll
 0001:000051cc       ??$__crt_fast_decode_pointer@PEAP6AXXZ@@YAPEAP6AXXZQEAP6AXXZ@Z 00000001800061cc f i MSVCRT:utility.obj
 0001:000051e4       ??$__crt_fast_encode_pointer@PEAP6AXXZ@@YAPEAP6AXXZQEAP6AXXZ@Z 00000001800061e4 f i MSVCRT:utility.obj
 0001:00005204       ?__crt_rotate_pointer_value@@YA_K_KH@Z 0000000180006204 f i MSVCRT:utility.obj
 0001:00005210       ?configure_argv@__scrt_narrow_argv_policy@@SAHXZ 0000000180006210 f i MSVCRT:utility.obj
 0001:00005270       ?initialize_environment@__scrt_narrow_environment_policy@@SAHXZ 0000000180006270 f i MSVCRT:utility.obj
 0001:000052a8       NtCurrentTeb               00000001800062a8 f i MSVCRT:utility.obj
 0001:000052b4       __scrt_acquire_startup_lock 00000001800062b4 f   MSVCRT:utility.obj
 0001:000052f0       __scrt_dllmain_after_initialize_c 00000001800062f0 f   MSVCRT:utility.obj
 0001:00005324       __scrt_dllmain_before_initialize_c 0000000180006324 f   MSVCRT:utility.obj
 0001:0000533c       __scrt_dllmain_crt_thread_attach 000000018000633c f   MSVCRT:utility.obj
 0001:00005364       __scrt_dllmain_crt_thread_detach 0000000180006364 f   MSVCRT:utility.obj
 0001:0000537c       __scrt_dllmain_exception_filter 000000018000637c f   MSVCRT:utility.obj
 0001:000053dc       __scrt_dllmain_uninitialize_c 00000001800063dc f   MSVCRT:utility.obj
 0001:0000540c       __scrt_dllmain_uninitialize_critical 000000018000640c f   MSVCRT:utility.obj
 0001:00005420       __scrt_initialize_crt      0000000180006420 f   MSVCRT:utility.obj
 0001:0000546c       __scrt_initialize_onexit_tables 000000018000646c f   MSVCRT:utility.obj
 0001:00005544       __scrt_is_nonwritable_in_current_image 0000000180006544 f   MSVCRT:utility.obj
 0001:000055e0       __scrt_release_startup_lock 00000001800065e0 f   MSVCRT:utility.obj
 0001:00005604       __scrt_uninitialize_crt    0000000180006604 f   MSVCRT:utility.obj
 0001:00005630       _onexit                    0000000180006630 f   MSVCRT:utility.obj
 0001:00005680       at_quick_exit              0000000180006680 f   MSVCRT:utility.obj
 0001:000056b8       atexit                     00000001800066b8 f   MSVCRT:utility.obj
 0001:00005a1c       _CRT_INIT                  0000000180006a1c f   MSVCRT:dll_dllmain.obj
 0001:00005a24       _DllMainCRTStartup         0000000180006a24 f   MSVCRT:dll_dllmain.obj
 0001:00005a64       __GSHandlerCheck           0000000180006a64 f   MSVCRT:_gshandler_.obj
 0001:00005a84       __GSHandlerCheckCommon     0000000180006a84 f   MSVCRT:_gshandler_.obj
 0001:00005af0       __security_check_cookie    0000000180006af0 f   MSVCRT:_amdsecgs_.obj
 0001:00005b14       ??3@YAXPEAX_K@Z            0000000180006b14 f   MSVCRT:delete_scalar_size.obj
 0001:00005b20       __vdecl_sinf4              0000000180006b20 f   MSVCRT:_svml_ssinf4_dispatch_.obj
 0001:00005b30       __libm_sse2_sincosf_       0000000180006b30 f   MSVCRT:_svml_ssinf4_dispatch_.obj
 0001:00005b76       __libm_sse2_sincosf4_      0000000180006b76 f   MSVCRT:_svml_ssinf4_dispatch_.obj
 0001:00005b88       __isa_available_init       0000000180006b88 f   MSVCRT:_cpu_disp_.obj
 0001:00005d44       _get_startup_argv_mode     0000000180006d44 f   MSVCRT:argv_mode.obj
 0001:00005d4c       __scrt_is_ucrt_dll_in_use  0000000180006d4c f   MSVCRT:ucrt_detection.obj
 0001:00005d58       __crt_debugger_hook        0000000180006d58 f   MSVCRT:utility_desktop.obj
 0001:00005d60       __scrt_fastfail            0000000180006d60 f   MSVCRT:utility_desktop.obj
 0001:00005eac       __scrt_get_show_window_mode 0000000180006eac f   MSVCRT:utility_desktop.obj
 0001:00005ee8       __scrt_initialize_mta      0000000180006ee8 f   MSVCRT:utility_desktop.obj
 0001:00005ef0       __scrt_initialize_winrt    0000000180006ef0 f   MSVCRT:utility_desktop.obj
 0001:00005ef4       __scrt_is_managed_app      0000000180006ef4 f   MSVCRT:utility_desktop.obj
 0001:00005f48       __scrt_set_unhandled_exception_filter 0000000180006f48 f   MSVCRT:utility_desktop.obj
 0001:00005f58       __scrt_stub_for_initialize_mta 0000000180006f58 f   MSVCRT:utility_desktop.obj
 0001:00005f58       __scrt_exe_initialize_mta  0000000180006f58 f   MSVCRT:utility_desktop.obj
 0001:00005f5c       __scrt_unhandled_exception_filter 0000000180006f5c f   MSVCRT:utility_desktop.obj
 0001:00005f94       _guard_check_icall_nop     0000000180006f94 f i MSVCRT:guard_support.obj
 0001:00005f98       ReadNoFence64              0000000180006f98 f i MSVCRT:guard_support.obj
 0001:00005f9c       ReadPointerNoFence         0000000180006f9c f i MSVCRT:guard_support.obj
 0001:00005fa0       _guard_icall_checks_enforced 0000000180006fa0 f i MSVCRT:guard_support.obj
 0001:00005fb8       _guard_rf_checks_enforced  0000000180006fb8 f i MSVCRT:guard_support.obj
 0001:00006028       __security_init_cookie     0000000180007028 f   MSVCRT:gs_support.obj
 0001:000060d4       DllMain                    00000001800070d4 f   MSVCRT:dll_dllmain_stub.obj
 0001:000060f8       ?__scrt_initialize_type_info@@YAXXZ 00000001800070f8 f   MSVCRT:tncleanup.obj
 0001:00006108       ?__scrt_uninitialize_type_info@@YAXXZ 0000000180007108 f   MSVCRT:tncleanup.obj
 0001:00006114       __local_stdio_printf_options 0000000180007114 f i MSVCRT:default_local_stdio_options.obj
 0001:0000611c       __local_stdio_scanf_options 000000018000711c f i MSVCRT:default_local_stdio_options.obj
 0001:00006124       __scrt_initialize_default_local_stdio_options 0000000180007124 f   MSVCRT:default_local_stdio_options.obj
 0001:00006140       __scrt_get_dyn_tls_init_callback 0000000180007140 f   MSVCRT:dyn_tls_init.obj
 0001:00006148       _RTC_Initialize            0000000180007148 f   MSVCRT:_initsect_.obj
 0001:00006184       _RTC_Terminate             0000000180007184 f   MSVCRT:_initsect_.obj
 0001:000061c0       __raise_securityfailure    00000001800071c0 f   MSVCRT:gs_report.obj
 0001:000061f4       __report_gsfailure         00000001800071f4 f   MSVCRT:gs_report.obj
 0001:000062c8       __report_rangecheckfailure 00000001800072c8 f   MSVCRT:gs_report.obj
 0001:000062dc       __report_securityfailure   00000001800072dc f   MSVCRT:gs_report.obj
 0001:00006378       __report_securityfailureEx 0000000180007378 f   MSVCRT:gs_report.obj
 0001:0000656c       ??3@YAXPEAX@Z              000000018000756c f   MSVCRT:delete_scalar.obj
 0001:00006580       __sse2_sinf4               0000000180007580 f   MSVCRT:_svml_ssinf4_sse2_.obj
 0001:00006e40       _vcomp_for_static_end      0000000180007e40 f   VCOMP:VCOMP140.DLL
 0001:00006e46       _vcomp_for_static_simple_init 0000000180007e46 f   VCOMP:VCOMP140.DLL
 0001:00006e4c       _vcomp_fork                0000000180007e4c f   VCOMP:VCOMP140.DLL
 0001:00006e60       __std_terminate            0000000180007e60 f   vcruntime:VCRUNTIME140.dll
 0001:00006e66       __CxxFrameHandler3         0000000180007e66 f   vcruntime:VCRUNTIME140.dll
 0001:00006e6c       memcpy                     0000000180007e6c f   vcruntime:VCRUNTIME140.dll
 0001:00006e72       memset                     0000000180007e72 f   vcruntime:VCRUNTIME140.dll
 0001:00006e78       _purecall                  0000000180007e78 f   vcruntime:VCRUNTIME140.dll
 0001:00006e7e       __C_specific_handler       0000000180007e7e f   vcruntime:VCRUNTIME140.dll
 0001:00006e84       __std_type_info_destroy_list 0000000180007e84 f   vcruntime:VCRUNTIME140.dll
 0001:00006e8a       _aligned_free              0000000180007e8a f   ucrt:api-ms-win-crt-heap-l1-1-0.dll
 0001:00006e90       _aligned_malloc            0000000180007e90 f   ucrt:api-ms-win-crt-heap-l1-1-0.dll
 0001:00006e96       tolower                    0000000180007e96 f   ucrt:api-ms-win-crt-string-l1-1-0.dll
 0001:00006e9c       cosf                       0000000180007e9c f   ucrt:api-ms-win-crt-math-l1-1-0.dll
 0001:00006ea2       sinf                       0000000180007ea2 f   ucrt:api-ms-win-crt-math-l1-1-0.dll
 0001:00006ea8       tanf                       0000000180007ea8 f   ucrt:api-ms-win-crt-math-l1-1-0.dll
 0001:00006eae       _seh_filter_dll            0000000180007eae f   ucrt:api-ms-win-crt-runtime-l1-1-0.dll
 0001:00006eb4       _configure_narrow_argv     0000000180007eb4 f   ucrt:api-ms-win-crt-runtime-l1-1-0.dll
 0001:00006eba       _initialize_narrow_environment 0000000180007eba f   ucrt:api-ms-win-crt-runtime-l1-1-0.dll
 0001:00006ec0       _initialize_onexit_table   0000000180007ec0 f   ucrt:api-ms-win-crt-runtime-l1-1-0.dll
 0001:00006ec6       _register_onexit_function  0000000180007ec6 f   ucrt:api-ms-win-crt-runtime-l1-1-0.dll
 0001:00006ecc       _execute_onexit_table      0000000180007ecc f   ucrt:api-ms-win-crt-runtime-l1-1-0.dll
 0001:00006ed2       _crt_atexit                0000000180007ed2 f   ucrt:api-ms-win-crt-runtime-l1-1-0.dll
 0001:00006ed8       _crt_at_quick_exit         0000000180007ed8 f   ucrt:api-ms-win-crt-runtime-l1-1-0.dll
 0001:00006ede       _cexit                     0000000180007ede f   ucrt:api-ms-win-crt-runtime-l1-1-0.dll
 0001:00006ee4       _initterm                  0000000180007ee4 f   ucrt:api-ms-win-crt-runtime-l1-1-0.dll
 0001:00006eea       _initterm_e                0000000180007eea f   ucrt:api-ms-win-crt-runtime-l1-1-0.dll
 0001:00006ef0       terminate                  0000000180007ef0 f   ucrt:api-ms-win-crt-runtime-l1-1-0.dll
 0001:00006ef6       free                       0000000180007ef6 f   ucrt:api-ms-win-crt-heap-l1-1-0.dll
 0001:00006efc       RtlCaptureContext          0000000180007efc f   kernel32:KERNEL32.dll
 0001:00006f02       RtlLookupFunctionEntry     0000000180007f02 f   kernel32:KERNEL32.dll
 0001:00006f08       RtlVirtualUnwind           0000000180007f08 f   kernel32:KERNEL32.dll
 0001:00006f0e       IsDebuggerPresent          0000000180007f0e f   kernel32:KERNEL32.dll
 0001:00006f14       UnhandledExceptionFilter   0000000180007f14 f   kernel32:KERNEL32.dll
 0001:00006f1a       SetUnhandledExceptionFilter 0000000180007f1a f   kernel32:KERNEL32.dll
 0001:00006f20       GetStartupInfoW            0000000180007f20 f   kernel32:KERNEL32.dll
 0001:00006f26       IsProcessorFeaturePresent  0000000180007f26 f   kernel32:KERNEL32.dll
 0001:00006f2c       GetModuleHandleW           0000000180007f2c f   kernel32:KERNEL32.dll
 0001:00006f32       QueryPerformanceCounter    0000000180007f32 f   kernel32:KERNEL32.dll
 0001:00006f38       GetCurrentProcessId        0000000180007f38 f   kernel32:KERNEL32.dll
 0001:00006f3e       GetCurrentThreadId         0000000180007f3e f   kernel32:KERNEL32.dll
 0001:00006f44       GetSystemTimeAsFileTime    0000000180007f44 f   kernel32:KERNEL32.dll
 0001:00006f4a       DisableThreadLibraryCalls  0000000180007f4a f   kernel32:KERNEL32.dll
 0001:00006f50       InitializeSListHead        0000000180007f50 f   kernel32:KERNEL32.dll
 0001:00006f56       GetCurrentProcess          0000000180007f56 f   kernel32:KERNEL32.dll
 0001:00006f5c       TerminateProcess           0000000180007f5c f   kernel32:KERNEL32.dll
 0001:00006f64       __scrt_stub_for_acrt_initialize 0000000180007f64 f   MSVCRT:ucrt_stubs.obj
 0001:00006f64       __acrt_initialize          0000000180007f64 f   MSVCRT:ucrt_stubs.obj
 0001:00006f64       __vcrt_initialize          0000000180007f64 f   MSVCRT:ucrt_stubs.obj
 0001:00006f68       __scrt_stub_for_acrt_thread_attach 0000000180007f68 f   MSVCRT:ucrt_stubs.obj
 0001:00006f68       __vcrt_thread_attach       0000000180007f68 f   MSVCRT:ucrt_stubs.obj
 0001:00006f68       __acrt_thread_attach       0000000180007f68 f   MSVCRT:ucrt_stubs.obj
 0001:00006f6c       __acrt_thread_detach       0000000180007f6c f   MSVCRT:ucrt_stubs.obj
 0001:00006f6c       __scrt_stub_for_acrt_thread_detach 0000000180007f6c f   MSVCRT:ucrt_stubs.obj
 0001:00006f6c       __vcrt_thread_detach       0000000180007f6c f   MSVCRT:ucrt_stubs.obj
 0001:00006f70       __acrt_uninitialize        0000000180007f70 f   MSVCRT:ucrt_stubs.obj
 0001:00006f70       __vcrt_uninitialize        0000000180007f70 f   MSVCRT:ucrt_stubs.obj
 0001:00006f70       __scrt_stub_for_acrt_uninitialize 0000000180007f70 f   MSVCRT:ucrt_stubs.obj
 0001:00006f74       __acrt_uninitialize_critical 0000000180007f74 f   MSVCRT:ucrt_stubs.obj
 0001:00006f74       __scrt_stub_for_acrt_uninitialize_critical 0000000180007f74 f   MSVCRT:ucrt_stubs.obj
 0001:00006f74       __vcrt_uninitialize_critical 0000000180007f74 f   MSVCRT:ucrt_stubs.obj
 0001:00006f78       __scrt_stub_for_is_c_termination_complete 0000000180007f78 f   MSVCRT:ucrt_stubs.obj
 0001:00006f78       _is_c_termination_complete 0000000180007f78 f   MSVCRT:ucrt_stubs.obj
 0001:00006f90       _guard_dispatch_icall_nop  0000000180007f90 f   MSVCRT:_guard_dispatch_.obj
 0002:00000000       __imp_UnhandledExceptionFilter 0000000180009000     kernel32:KERNEL32.dll
 0002:00000008       __imp_TerminateProcess     0000000180009008     kernel32:KERNEL32.dll
 0002:00000010       __imp_GetCurrentProcess    0000000180009010     kernel32:KERNEL32.dll
 0002:00000018       __imp_InitializeSListHead  0000000180009018     kernel32:KERNEL32.dll
 0002:00000020       __imp_DisableThreadLibraryCalls 0000000180009020     kernel32:KERNEL32.dll
 0002:00000028       __imp_GetSystemTimeAsFileTime 0000000180009028     kernel32:KERNEL32.dll
 0002:00000030       __imp_GetCurrentThreadId   0000000180009030     kernel32:KERNEL32.dll
 0002:00000038       __imp_GetCurrentProcessId  0000000180009038     kernel32:KERNEL32.dll
 0002:00000040       __imp_QueryPerformanceCounter 0000000180009040     kernel32:KERNEL32.dll
 0002:00000048       __imp_GetModuleHandleW     0000000180009048     kernel32:KERNEL32.dll
 0002:00000050       __imp_IsProcessorFeaturePresent 0000000180009050     kernel32:KERNEL32.dll
 0002:00000058       __imp_GetStartupInfoW      0000000180009058     kernel32:KERNEL32.dll
 0002:00000060       __imp_SetUnhandledExceptionFilter 0000000180009060     kernel32:KERNEL32.dll
 0002:00000068       __imp_RtlVirtualUnwind     0000000180009068     kernel32:KERNEL32.dll
 0002:00000070       __imp_IsDebuggerPresent    0000000180009070     kernel32:KERNEL32.dll
 0002:00000078       __imp_RtlLookupFunctionEntry 0000000180009078     kernel32:KERNEL32.dll
 0002:00000080       __imp_RtlCaptureContext    0000000180009080     kernel32:KERNEL32.dll
 0002:00000088       \177KERNEL32_NULL_THUNK_DATA 0000000180009088     kernel32:KERNEL32.dll
 0002:00000090       __imp_?_Osfx@?$basic_ostream@DU?$char_traits@D@std@@@std@@QEAAXXZ 0000000180009090     msvcprt:MSVCP140.dll
 0002:00000098       __imp_??6?$basic_ostream@DU?$char_traits@D@std@@@std@@QEAAAEAV01@M@Z 0000000180009098     msvcprt:MSVCP140.dll
 0002:000000a0       __imp_?flush@?$basic_ostream@DU?$char_traits@D@std@@@std@@QEAAAEAV12@XZ 00000001800090a0     msvcprt:MSVCP140.dll
 0002:000000a8       __imp_?cout@std@@3V?$basic_ostream@DU?$char_traits@D@std@@@1@A 00000001800090a8     msvcprt:MSVCP140.dll
 0002:000000b0       __imp_?sputc@?$basic_streambuf@DU?$char_traits@D@std@@@std@@QEAAHD@Z 00000001800090b0     msvcprt:MSVCP140.dll
 0002:000000b8       __imp_?sputn@?$basic_streambuf@DU?$char_traits@D@std@@@std@@QEAA_JPEBD_J@Z 00000001800090b8     msvcprt:MSVCP140.dll
 0002:000000c0       __imp_?setstate@?$basic_ios@DU?$char_traits@D@std@@@std@@QEAAXH_N@Z 00000001800090c0     msvcprt:MSVCP140.dll
 0002:000000c8       \177MSVCP140_NULL_THUNK_DATA 00000001800090c8     msvcprt:MSVCP140.dll
 0002:000000d0       __imp__vcomp_for_static_end 00000001800090d0     VCOMP:VCOMP140.DLL
 0002:000000d8       __imp__vcomp_fork          00000001800090d8     VCOMP:VCOMP140.DLL
 0002:000000e0       __imp__vcomp_for_static_simple_init 00000001800090e0     VCOMP:VCOMP140.DLL
 0002:000000e8       \177VCOMP140_NULL_THUNK_DATA 00000001800090e8     VCOMP:VCOMP140.DLL
 0002:000000f0       __imp_memset               00000001800090f0     vcruntime:VCRUNTIME140.dll
 0002:000000f8       __imp__purecall            00000001800090f8     vcruntime:VCRUNTIME140.dll
 0002:00000100       __imp___C_specific_handler 0000000180009100     vcruntime:VCRUNTIME140.dll
 0002:00000108       __imp_memcpy               0000000180009108     vcruntime:VCRUNTIME140.dll
 0002:00000110       __imp___std_terminate      0000000180009110     vcruntime:VCRUNTIME140.dll
 0002:00000118       __imp___std_type_info_destroy_list 0000000180009118     vcruntime:VCRUNTIME140.dll
 0002:00000120       __imp___CxxFrameHandler3   0000000180009120     vcruntime:VCRUNTIME140.dll
 0002:00000128       \177VCRUNTIME140_NULL_THUNK_DATA 0000000180009128     vcruntime:VCRUNTIME140.dll
 0002:00000130       __imp__aligned_free        0000000180009130     ucrt:api-ms-win-crt-heap-l1-1-0.dll
 0002:00000138       __imp__aligned_malloc      0000000180009138     ucrt:api-ms-win-crt-heap-l1-1-0.dll
 0002:00000140       __imp_free                 0000000180009140     ucrt:api-ms-win-crt-heap-l1-1-0.dll
 0002:00000148       \177api-ms-win-crt-heap-l1-1-0_NULL_THUNK_DATA 0000000180009148     ucrt:api-ms-win-crt-heap-l1-1-0.dll
 0002:00000150       __imp_cosf                 0000000180009150     ucrt:api-ms-win-crt-math-l1-1-0.dll
 0002:00000158       __imp_sinf                 0000000180009158     ucrt:api-ms-win-crt-math-l1-1-0.dll
 0002:00000160       __imp_tanf                 0000000180009160     ucrt:api-ms-win-crt-math-l1-1-0.dll
 0002:00000168       \177api-ms-win-crt-math-l1-1-0_NULL_THUNK_DATA 0000000180009168     ucrt:api-ms-win-crt-math-l1-1-0.dll
 0002:00000170       __imp__execute_onexit_table 0000000180009170     ucrt:api-ms-win-crt-runtime-l1-1-0.dll
 0002:00000178       __imp__crt_atexit          0000000180009178     ucrt:api-ms-win-crt-runtime-l1-1-0.dll
 0002:00000180       __imp__crt_at_quick_exit   0000000180009180     ucrt:api-ms-win-crt-runtime-l1-1-0.dll
 0002:00000188       __imp__cexit               0000000180009188     ucrt:api-ms-win-crt-runtime-l1-1-0.dll
 0002:00000190       __imp__initterm            0000000180009190     ucrt:api-ms-win-crt-runtime-l1-1-0.dll
 0002:00000198       __imp__initterm_e          0000000180009198     ucrt:api-ms-win-crt-runtime-l1-1-0.dll
 0002:000001a0       __imp_terminate            00000001800091a0     ucrt:api-ms-win-crt-runtime-l1-1-0.dll
 0002:000001a8       __imp__initialize_onexit_table 00000001800091a8     ucrt:api-ms-win-crt-runtime-l1-1-0.dll
 0002:000001b0       __imp__initialize_narrow_environment 00000001800091b0     ucrt:api-ms-win-crt-runtime-l1-1-0.dll
 0002:000001b8       __imp__configure_narrow_argv 00000001800091b8     ucrt:api-ms-win-crt-runtime-l1-1-0.dll
 0002:000001c0       __imp__register_onexit_function 00000001800091c0     ucrt:api-ms-win-crt-runtime-l1-1-0.dll
 0002:000001c8       __imp__seh_filter_dll      00000001800091c8     ucrt:api-ms-win-crt-runtime-l1-1-0.dll
 0002:000001d0       \177api-ms-win-crt-runtime-l1-1-0_NULL_THUNK_DATA 00000001800091d0     ucrt:api-ms-win-crt-runtime-l1-1-0.dll
 0002:000001d8       __imp_tolower              00000001800091d8     ucrt:api-ms-win-crt-string-l1-1-0.dll
 0002:000001e0       \177api-ms-win-crt-string-l1-1-0_NULL_THUNK_DATA 00000001800091e0     ucrt:api-ms-win-crt-string-l1-1-0.dll
 0002:000001e8       __imp_rtcReleaseDevice     00000001800091e8     embree3:embree3.dll
 0002:000001f0       __imp_rtcIntersect16       00000001800091f0     embree3:embree3.dll
 0002:000001f8       __imp_rtcIntersect1        00000001800091f8     embree3:embree3.dll
 0002:00000200       __imp_rtcCommitScene       0000000180009200     embree3:embree3.dll
 0002:00000208       __imp_rtcAttachGeometry    0000000180009208     embree3:embree3.dll
 0002:00000210       __imp_rtcReleaseScene      0000000180009210     embree3:embree3.dll
 0002:00000218       __imp_rtcNewScene          0000000180009218     embree3:embree3.dll
 0002:00000220       __imp_rtcSetNewGeometryBuffer 0000000180009220     embree3:embree3.dll
 0002:00000228       __imp_rtcCommitGeometry    0000000180009228     embree3:embree3.dll
 0002:00000230       __imp_rtcReleaseGeometry   0000000180009230     embree3:embree3.dll
 0002:00000238       __imp_rtcNewGeometry       0000000180009238     embree3:embree3.dll
 0002:00000240       __imp_rtcSetDeviceErrorFunction 0000000180009240     embree3:embree3.dll
 0002:00000248       __imp_rtcGetDeviceError    0000000180009248     embree3:embree3.dll
 0002:00000250       __imp_rtcNewDevice         0000000180009250     embree3:embree3.dll
 0002:00000258       \177embree3_NULL_THUNK_DATA 0000000180009258     embree3:embree3.dll
 0002:00000260       __guard_check_icall_fptr   0000000180009260     MSVCRT:guard_support.obj
 0002:00000268       __guard_dispatch_icall_fptr 0000000180009268     MSVCRT:guard_support.obj
 0002:00000270       __xc_a                     0000000180009270     MSVCRT:initializers.obj
 0002:00000290       __xc_z                     0000000180009290     MSVCRT:initializers.obj
 0002:00000298       __xi_a                     0000000180009298     MSVCRT:initializers.obj
 0002:000002a0       __xi_z                     00000001800092a0     MSVCRT:initializers.obj
 0002:000002a8       __xp_a                     00000001800092a8     MSVCRT:initializers.obj
 0002:000002b0       __xp_z                     00000001800092b0     MSVCRT:initializers.obj
 0002:000002b8       __xt_a                     00000001800092b8     MSVCRT:initializers.obj
 0002:000002c0       __xt_z                     00000001800092c0     MSVCRT:initializers.obj
 0002:000002d0       ??_C@_0DJ@JCEMJGHK@d?3?2code?2personal?2rcu?2c_api?2src?2@ 00000001800092d0     raycast_manager_c_api.obj
 0002:00000310       ??_C@_0BD@DOLJDMMA@Allocator?5was?5null@ 0000000180009310     raycast_manager_c_api.obj
 0002:00000328       ??_C@_0BI@KCEKPHPA@RaycastManager?5was?5null@ 0000000180009328     raycast_manager_c_api.obj
 0002:00000340       ??_C@_0P@FLNMHJIE@Scene?5was?5null@ 0000000180009340     raycast_manager_c_api.obj
 0002:00000350       ??_C@_0CP@HLFMAOFF@d?3?2code?2personal?2rcu?2c_api?2src?2@ 0000000180009350     scene_c_api.obj
 0002:00000448       ??_C@_00CNPNBAHC@@         0000000180009448     rcu_sdk:raycast_manager.obj
 0002:00000450       ??_C@_0BC@ILEANOLC@RTC_ERROR_UNKNOWN@ 0000000180009450     rcu_sdk:raycast_manager.obj
 0002:00000464       ??_C@_06HPAOFLIG@EMBREE@   0000000180009464     rcu_sdk:raycast_manager.obj
 0002:00000470       ??_C@_0BL@HAOEFPIC@RTC_ERROR_INVALID_ARGUMENT@ 0000000180009470     rcu_sdk:raycast_manager.obj
 0002:00000490       ??_C@_0BM@HNGHEPHP@RTC_ERROR_INVALID_OPERATION@ 0000000180009490     rcu_sdk:raycast_manager.obj
 0002:000004b0       ??_C@_0BI@PHLKGJKD@RTC_ERROR_OUT_OF_MEMORY@ 00000001800094b0     rcu_sdk:raycast_manager.obj
 0002:000004c8       ??_C@_0BK@IPLBLLDO@RTC_ERROR_UNSUPPORTED_CPU@ 00000001800094c8     rcu_sdk:raycast_manager.obj
 0002:000004e8       ??_C@_0BE@JFEAGBCH@RTC_ERROR_CANCELLED@ 00000001800094e8     rcu_sdk:raycast_manager.obj
 0002:00000500       ??_C@_0BD@FLDFJNOC@invalid?5error?5code@ 0000000180009500     rcu_sdk:raycast_manager.obj
 0002:00000514       __real@3f800000            0000000180009514     rcu_sdk:raycast_manager.obj
 0002:00000608       ??_7SystemAllocator@bento@@6B@ 0000000180009608     bento_sdk:system_allocator.obj
 0002:00000628       ??_C@_07DMOCMFND@FAILURE@  0000000180009628     bento_sdk:security.obj
 0002:00000770       ??_C@_0DG@LAEMGPFC@d?3?2code?2personal?2rcu?2bento?2src?2@ 0000000180009770     bento_sdk:matrix4.obj
 0002:000007a8       ??_C@_0BJ@DHGJMDGE@function?5not?5implemented@ 00000001800097a8     bento_sdk:matrix4.obj
 0002:000007c4       ??_C@_01PKGAHCOL@?$CJ@     00000001800097c4     bento_sdk:matrix4.obj
 0002:000007c8       ??_C@_02KEGNLNML@?0?5@     00000001800097c8     bento_sdk:matrix4.obj
 0002:000007cc       ??_C@_02MLAGHBOD@?0?6@     00000001800097cc     bento_sdk:matrix4.obj
 0002:000007d0       ??_C@_09KGBOGBAA@Matrix4?6?$CI@ 00000001800097d0     bento_sdk:matrix4.obj
 0002:000007dc       __real@3c0ee7a7            00000001800097dc     bento_sdk:matrix4.obj
 0002:000007e0       __xmm@80000000800000008000000080000000 00000001800097e0     bento_sdk:matrix4.obj
 0002:000007f0       ??_7IAllocator@bento@@6B@  00000001800097f0     bento_sdk:allocator.obj
 0002:00000810       ??_7ILogger@bento@@6B@     0000000180009810     bento_sdk:system_logger.obj
 0002:00000820       ??_7SystemLogger@bento@@6B@ 0000000180009820     bento_sdk:system_logger.obj
 0002:00000830       ??_C@_07NJGAEJFG@?$FLDEBUG?$FN@ 0000000180009830     bento_sdk:system_logger.obj
 0002:00000838       ??_C@_06EGHJMOEF@?$FLINFO?$FN@ 0000000180009838     bento_sdk:system_logger.obj
 0002:00000840       ??_C@_09HLHFDKBC@?$FLWARNING?$FN@ 0000000180009840     bento_sdk:system_logger.obj
 0002:00000850       ??_C@_07CEGNDBCD@?$FLERROR?$FN@ 0000000180009850     bento_sdk:system_logger.obj
 0002:00000858       ??_C@_01EEMJAFIK@?6@       0000000180009858     bento_sdk:system_logger.obj
 0002:0000085c       ??_C@_01LBDDMOBJ@?$FN@     000000018000985c     bento_sdk:system_logger.obj
 0002:00000860       ??_C@_01OHGJGJJP@?$FL@     0000000180009860     bento_sdk:system_logger.obj
 0002:00000868       _pRawDllMain               0000000180009868     MSVCRT:dll_dllmain.obj
 0002:00000868       _pDefaultRawDllMain        0000000180009868     MSVCRT:dll_dllmain.obj
 0002:00000940       _load_config_used          0000000180009940     MSVCRT:loadcfg.obj
 0002:00000d38       __rtc_iaa                  0000000180009d38     MSVCRT:_initsect_.obj
 0002:00000d40       __rtc_izz                  0000000180009d40     MSVCRT:_initsect_.obj
 0002:00000d48       __rtc_taa                  0000000180009d48     MSVCRT:_initsect_.obj
 0002:00000d50       __rtc_tzz                  0000000180009d50     MSVCRT:_initsect_.obj
 0002:00001ac8       __IMPORT_DESCRIPTOR_embree3 000000018000aac8     embree3:embree3.dll
 0002:00001adc       __IMPORT_DESCRIPTOR_MSVCP140 000000018000aadc     msvcprt:MSVCP140.dll
 0002:00001af0       __IMPORT_DESCRIPTOR_VCOMP140 000000018000aaf0     VCOMP:VCOMP140.DLL
 0002:00001b04       __IMPORT_DESCRIPTOR_VCRUNTIME140 000000018000ab04     vcruntime:VCRUNTIME140.dll
 0002:00001b18       __IMPORT_DESCRIPTOR_api-ms-win-crt-heap-l1-1-0 000000018000ab18     ucrt:api-ms-win-crt-heap-l1-1-0.dll
 0002:00001b2c       __IMPORT_DESCRIPTOR_api-ms-win-crt-string-l1-1-0 000000018000ab2c     ucrt:api-ms-win-crt-string-l1-1-0.dll
 0002:00001b40       __IMPORT_DESCRIPTOR_api-ms-win-crt-math-l1-1-0 000000018000ab40     ucrt:api-ms-win-crt-math-l1-1-0.dll
 0002:00001b54       __IMPORT_DESCRIPTOR_api-ms-win-crt-runtime-l1-1-0 000000018000ab54     ucrt:api-ms-win-crt-runtime-l1-1-0.dll
 0002:00001b68       __IMPORT_DESCRIPTOR_KERNEL32 000000018000ab68     kernel32:KERNEL32.dll
 0002:00001b7c       __NULL_IMPORT_DESCRIPTOR   000000018000ab7c     embree3:embree3.dll
 0003:00000000       ?__default_logger@bento@@3PEAVILogger@1@EA 000000018000c000     bento_sdk:log.obj
 0003:00000008       __scrt_native_dllmain_reason 000000018000c008     MSVCRT:utility.obj
 0003:00000010       __security_cookie_complement 000000018000c010     MSVCRT:gs_cookie.obj
 0003:00000018       __security_cookie          000000018000c018     MSVCRT:gs_cookie.obj
 0003:00000020       _fltused                   000000018000c020     MSVCRT:fltused.obj
 0003:00000030       __isa_available            000000018000c030     MSVCRT:_cpu_disp_.obj
 0003:00000034       __isa_enabled              000000018000c034     MSVCRT:_cpu_disp_.obj
 0003:00000038       __memcpy_nt_iters          000000018000c038     MSVCRT:_cpu_disp_.obj
 0003:00000040       _You_must_link_with_exactly_one_OpenMP_library 000000018000c040     VCOMP:unique.obj
 0003:00000044       _You_must_link_with_Microsoft_OpenMP_library 000000018000c044     VCOMP:unique.obj
 0003:00000048       __scrt_ucrt_dll_is_in_use  000000018000c048     MSVCRT:ucrt_stubs.obj
 0003:00000060       ?__default_system_logger@bento@@3VSystemLogger@1@A 000000018000c060     bento_sdk:log.obj
 0003:00000068       __scrt_current_native_startup_state 000000018000c068     MSVCRT:utility.obj
 0003:00000070       __scrt_native_startup_lock 000000018000c070     MSVCRT:utility.obj
 0003:000000b4       __favor                    000000018000c0b4     MSVCRT:_cpu_disp_.obj
 0003:000000b8       __scrt_debugger_hook_flag  000000018000c0b8     MSVCRT:utility_desktop.obj
 0003:000000c0       ?__type_info_root_node@@3U__type_info_node@@A 000000018000c0c0     MSVCRT:tncleanup.obj
 0003:000000d0       ?_OptionsStorage@?1??__local_stdio_printf_options@@9@4_KA 000000018000c0d0     MSVCRT:default_local_stdio_options.obj
 0003:000000d8       ?_OptionsStorage@?1??__local_stdio_scanf_options@@9@4_KA 000000018000c0d8     MSVCRT:default_local_stdio_options.obj
 0003:00000650       __dyn_tls_init_callback    000000018000c650     <common>

 entry point at        0001:00005a24

 Static symbols

 0000:fffef000       .debug$S                   0000000180000000     vcruntime:VCRUNTIME140.dll
 0001:fffff000       ?dtor$0@?0???$?6U?$char_traits@D@std@@@std@@YAAEAV?$basic_ostream@DU?$char_traits@D@std@@@0@AEAV10@PEBD@Z@4HA 0000000180000000 f   bento_sdk:system_logger.obj
 0001:fffff000       ?dtor$1@?0???$?6U?$char_traits@D@std@@@std@@YAAEAV?$basic_ostream@DU?$char_traits@D@std@@@0@AEAV10@PEBD@Z@4HA 0000000180000000 f   bento_sdk:system_logger.obj
 0002:ffff7000       $unwind$??$?6U?$char_traits@D@std@@@std@@YAAEAV?$basic_ostream@DU?$char_traits@D@std@@@0@AEAV10@PEBD@Z 0000000180000000     bento_sdk:system_logger.obj
 0004:ffff3000       $pdata$??$?6U?$char_traits@D@std@@@std@@YAAEAV?$basic_ostream@DU?$char_traits@D@std@@@0@AEAV10@PEBD@Z 0000000180000000     bento_sdk:system_logger.obj
 0002:ffff7000       $cppxdata$??$?6U?$char_traits@D@std@@@std@@YAAEAV?$basic_ostream@DU?$char_traits@D@std@@@0@AEAV10@PEBD@Z 0000000180000000     bento_sdk:system_logger.obj
 0002:ffff7000       $stateUnwindMap$??$?6U?$char_traits@D@std@@@std@@YAAEAV?$basic_ostream@DU?$char_traits@D@std@@@0@AEAV10@PEBD@Z 0000000180000000     bento_sdk:system_logger.obj
 0002:ffff7000       $ip2state$??$?6U?$char_traits@D@std@@@std@@YAAEAV?$basic_ostream@DU?$char_traits@D@std@@@0@AEAV10@PEBD@Z 0000000180000000     bento_sdk:system_logger.obj
 0002:ffff7000       $unwind$??1_Sentry_base@?$basic_ostream@DU?$char_traits@D@std@@@std@@QEAA@XZ 0000000180000000     bento_sdk:system_logger.obj
 0004:ffff3000       $pdata$??1_Sentry_base@?$basic_ostream@DU?$char_traits@D@std@@@std@@QEAA@XZ 0000000180000000     bento_sdk:system_logger.obj
 0002:ffff7000       $cppxdata$??1_Sentry_base@?$basic_ostream@DU?$char_traits@D@std@@@std@@QEAA@XZ 0000000180000000     bento_sdk:system_logger.obj
 0002:ffff7000       $ip2state$??1_Sentry_base@?$basic_ostream@DU?$char_traits@D@std@@@std@@QEAA@XZ 0000000180000000     bento_sdk:system_logger.obj
 0002:ffff7000       $unwind$??1sentry@?$basic_ostream@DU?$char_traits@D@std@@@std@@QEAA@XZ 0000000180000000     bento_sdk:system_logger.obj
 0004:ffff3000       $pdata$??1sentry@?$basic_ostream@DU?$char_traits@D@std@@@std@@QEAA@XZ 0000000180000000     bento_sdk:system_logger.obj
 0002:ffff7000       $cppxdata$??1sentry@?$basic_ostream@DU?$char_traits@D@std@@@std@@QEAA@XZ 0000000180000000     bento_sdk:system_logger.obj
 0000:fffef000       .debug$S                   0000000180000000     rcu_dylib.exp
 0002:ffff7000       $stateUnwindMap$??1sentry@?$basic_ostream@DU?$char_traits@D@std@@@std@@QEAA@XZ 0000000180000000     bento_sdk:system_logger.obj
 0002:ffff7000       $ip2state$??1sentry@?$basic_ostream@DU?$char_traits@D@std@@@std@@QEAA@XZ 0000000180000000     bento_sdk:system_logger.obj
 0000:fffef000       .debug$S                   0000000180000000     kernel32:KERNEL32.dll
 0000:fffef000       .debug$S                   0000000180000000     kernel32:KERNEL32.dll
 0000:fffef000       .debug$S                   0000000180000000     kernel32:KERNEL32.dll
 0000:fffef000       .debug$S                   0000000180000000     kernel32:KERNEL32.dll
 0000:fffef000       .debug$S                   0000000180000000     kernel32:KERNEL32.dll
 0000:fffef000       .debug$S                   0000000180000000     kernel32:KERNEL32.dll
 0000:fffef000       .debug$S                   0000000180000000     kernel32:KERNEL32.dll
 0000:fffef000       .debug$S                   0000000180000000     kernel32:KERNEL32.dll
 0000:fffef000       .debug$S                   0000000180000000     kernel32:KERNEL32.dll
 0000:fffef000       .debug$S                   0000000180000000     kernel32:KERNEL32.dll
 0000:fffef000       .debug$S                   0000000180000000     kernel32:KERNEL32.dll
 0000:fffef000       .debug$S                   0000000180000000     kernel32:KERNEL32.dll
 0000:fffef000       .debug$S                   0000000180000000     kernel32:KERNEL32.dll
 0000:fffef000       .debug$S                   0000000180000000     kernel32:KERNEL32.dll
 0000:fffef000       .debug$S                   0000000180000000     kernel32:KERNEL32.dll
 0000:fffef000       .debug$S                   0000000180000000     kernel32:KERNEL32.dll
 0000:fffef000       .debug$S                   0000000180000000     kernel32:KERNEL32.dll
 0002:ffff7000       $unwind$?resize@?$Vector@D@bento@@QEAAXI@Z 0000000180000000     bento_sdk:stream.obj
 0004:ffff3000       $pdata$?resize@?$Vector@D@bento@@QEAAXI@Z 0000000180000000     bento_sdk:stream.obj
 0002:ffff7000       $unwind$?reserve@?$Vector@D@bento@@QEAAXI@Z 0000000180000000     bento_sdk:stream.obj
 0004:ffff3000       $pdata$?reserve@?$Vector@D@bento@@QEAAXI@Z 0000000180000000     bento_sdk:stream.obj
 0000:fffef000       .debug$S                   0000000180000000     ucrt:api-ms-win-crt-heap-l1-1-0.dll
 0000:fffef000       .debug$S                   0000000180000000     ucrt:api-ms-win-crt-runtime-l1-1-0.dll
 0000:fffef000       .debug$S                   0000000180000000     ucrt:api-ms-win-crt-runtime-l1-1-0.dll
 0000:fffef000       .debug$S                   0000000180000000     ucrt:api-ms-win-crt-runtime-l1-1-0.dll
 0000:fffef000       .debug$S                   0000000180000000     ucrt:api-ms-win-crt-runtime-l1-1-0.dll
 0000:fffef000       .debug$S                   0000000180000000     ucrt:api-ms-win-crt-runtime-l1-1-0.dll
 0000:fffef000       .debug$S                   0000000180000000     ucrt:api-ms-win-crt-runtime-l1-1-0.dll
 0000:fffef000       .debug$S                   0000000180000000     ucrt:api-ms-win-crt-runtime-l1-1-0.dll
 0000:fffef000       .debug$S                   0000000180000000     ucrt:api-ms-win-crt-runtime-l1-1-0.dll
 0000:fffef000       .debug$S                   0000000180000000     ucrt:api-ms-win-crt-runtime-l1-1-0.dll
 0000:fffef000       .debug$S                   0000000180000000     ucrt:api-ms-win-crt-runtime-l1-1-0.dll
 0000:fffef000       .debug$S                   0000000180000000     ucrt:api-ms-win-crt-runtime-l1-1-0.dll
 0000:fffef000       .debug$S                   0000000180000000     ucrt:api-ms-win-crt-runtime-l1-1-0.dll
 0000:fffef000       .debug$S                   0000000180000000     ucrt:api-ms-win-crt-math-l1-1-0.dll
 0000:fffef000       .debug$S                   0000000180000000     ucrt:api-ms-win-crt-math-l1-1-0.dll
 0000:fffef000       .debug$S                   0000000180000000     ucrt:api-ms-win-crt-math-l1-1-0.dll
 0000:fffef000       .debug$S                   0000000180000000     ucrt:api-ms-win-crt-string-l1-1-0.dll
 0000:fffef000       .debug$S                   0000000180000000     ucrt:api-ms-win-crt-heap-l1-1-0.dll
 0000:fffef000       .debug$S                   0000000180000000     ucrt:api-ms-win-crt-heap-l1-1-0.dll
 0000:fffef000       .debug$S                   0000000180000000     embree3:embree3.dll
 0000:fffef000       .debug$S                   0000000180000000     vcruntime:VCRUNTIME140.dll
 0000:fffef000       .debug$S                   0000000180000000     vcruntime:VCRUNTIME140.dll
 0000:fffef000       .debug$S                   0000000180000000     vcruntime:VCRUNTIME140.dll
 0002:ffff7000       $cppxdata$??1?$Vector@D@bento@@QEAA@XZ 0000000180000000     bento_sdk:dynamic_string.obj
 0000:fffef000       .debug$S                   0000000180000000     vcruntime:VCRUNTIME140.dll
 0000:fffef000       .debug$S                   0000000180000000     vcruntime:VCRUNTIME140.dll
 0000:fffef000       .debug$S                   0000000180000000     vcruntime:VCRUNTIME140.dll
 0000:fffef000       .debug$S                   0000000180000000     embree3:embree3.dll
 0000:fffef000       .debug$S                   0000000180000000     VCOMP:VCOMP140.DLL
 0000:fffef000       .debug$S                   0000000180000000     VCOMP:VCOMP140.DLL
 0000:fffef000       .debug$S                   0000000180000000     VCOMP:VCOMP140.DLL
 0002:ffff7000       __guard_fids__guard_icall_checks_enforced 0000000180000000     MSVCRT:guard_support.obj
 0000:fffef000       .debug$S                   0000000180000000     embree3:embree3.dll
 0002:ffff7000       __guard_fids__             0000000180000000     MSVCRT:guard_support.obj
 0000:fffef000       .debug$S                   0000000180000000     embree3:embree3.dll
 0000:fffef000       .debug$S                   0000000180000000     embree3:embree3.dll
 0000:fffef000       .debug$S                   0000000180000000     embree3:embree3.dll
 0000:fffef000       .debug$S                   0000000180000000     embree3:embree3.dll
 0000:fffef000       .debug$S                   0000000180000000     embree3:embree3.dll
 0000:fffef000       .debug$S                   0000000180000000     embree3:embree3.dll
 0000:fffef000       .debug$S                   0000000180000000     embree3:embree3.dll
 0000:fffef000       .debug$S                   0000000180000000     embree3:embree3.dll
 0000:fffef000       .debug$S                   0000000180000000     embree3:embree3.dll
 0000:fffef000       .debug$S                   0000000180000000     embree3:embree3.dll
 0000:fffef000       .debug$S                   0000000180000000     embree3:embree3.dll
 0000:fffef000       .debug$S                   0000000180000000     msvcprt:MSVCP140.dll
 0000:fffef000       .debug$S                   0000000180000000     msvcprt:MSVCP140.dll
 0000:fffef000       .debug$S                   0000000180000000     msvcprt:MSVCP140.dll
 0000:fffef000       .debug$S                   0000000180000000     msvcprt:MSVCP140.dll
 0000:fffef000       .debug$S                   0000000180000000     msvcprt:MSVCP140.dll
 0000:fffef000       .debug$S                   0000000180000000     msvcprt:MSVCP140.dll
 0000:fffef000       .debug$S                   0000000180000000     msvcprt:MSVCP140.dll
 0002:ffff7000       __guard_fids___scrt_set_unhandled_exception_filter 0000000180000000     MSVCRT:utility_desktop.obj
 0002:ffff7000       __guard_fids_?dllmain_dispatch@@YAHQEAUHINSTANCE__@@KQEAX@Z 0000000180000000     MSVCRT:dll_dllmain.obj
 0002:ffff7000       $unwind$??1?$Vector@D@bento@@QEAA@XZ 0000000180000000     bento_sdk:dynamic_string.obj
 0004:ffff3000       $pdata$?free@?$Vector@D@bento@@QEAAXXZ 0000000180000000     bento_sdk:dynamic_string.obj
 0002:ffff7000       $unwind$?free@?$Vector@D@bento@@QEAAXXZ 0000000180000000     bento_sdk:dynamic_string.obj
 0002:ffff7000       $ip2state$??1?$Vector@D@bento@@QEAA@XZ 0000000180000000     bento_sdk:dynamic_string.obj
 0004:ffff3000       $pdata$??1?$Vector@D@bento@@QEAA@XZ 0000000180000000     bento_sdk:dynamic_string.obj
 0001:00000000       ??__E_base_allocator@@YAXXZ 0000000180001000 f   allocator_c_api.obj
 0001:00000020       ??__E_base_allocator@@YAXXZ 0000000180001020 f   scene_c_api.obj
 0001:00000040       ??__E__default_system_logger@bento@@YAXXZ 0000000180001040 f   bento_sdk:log.obj
 0001:00000668       $LN13                      0000000180001668     rcu_sdk:raycast_manager.obj
 0001:00000a90       ?run$omp$1@TRaycastManager@rcu@@QEAAXPEBUTRay@2@PEAUTIntersection@2@I_N@Z 0000000180001a90 f   rcu_sdk:raycast_manager.obj
 0001:00001010       ?run$omp$2@TRaycastManager@rcu@@QEAAXPEBUTRay@2@PEAUTIntersection@2@I_N@Z 0000000180002010 f   rcu_sdk:raycast_manager.obj
 0001:000010b0       ?run$omp$3@TRaycastManager@rcu@@QEAAXPEBUTRay@2@PEAUTIntersection@2@I_N@Z 00000001800020b0 f   rcu_sdk:raycast_manager.obj
 0001:00005224       ?find_pe_section@@YAPEAU_IMAGE_SECTION_HEADER@@QEAE_K@Z 0000000180006224 f   MSVCRT:utility.obj
 0001:00005278       ?is_potentially_valid_image_base@@YA_NQEAX@Z 0000000180006278 f   MSVCRT:utility.obj
 0001:000056d0       ?dllmain_crt_dispatch@@YAHQEAUHINSTANCE__@@KQEAX@Z 00000001800066d0 f   MSVCRT:dll_dllmain.obj
 0001:00005720       ?dllmain_crt_process_attach@@YAHQEAUHINSTANCE__@@QEAX@Z 0000000180006720 f   MSVCRT:dll_dllmain.obj
 0001:0000583c       ?dllmain_crt_process_detach@@YAH_N@Z 000000018000683c f   MSVCRT:dll_dllmain.obj
 0001:000058cc       ?dllmain_dispatch@@YAHQEAUHINSTANCE__@@KQEAX@Z 00000001800068cc f   MSVCRT:dll_dllmain.obj
 0001:00005a00       ?dllmain_raw@@YAHQEAUHINSTANCE__@@KQEAX@Z 0000000180006a00 f   MSVCRT:dll_dllmain.obj
 0001:00005ae0       $$000000                   0000000180006ae0     MSVCRT:_amdsecgs_.obj
 0001:00005b20       $$000000                   0000000180006b20     MSVCRT:_svml_ssinf4_dispatch_.obj
 0001:00005fbc       __get_entropy              0000000180006fbc f   MSVCRT:gs_support.obj
 0001:00006488       capture_current_context    0000000180007488 f   MSVCRT:gs_report.obj
 0001:000064f8       capture_previous_context   00000001800074f8 f   MSVCRT:gs_report.obj
 0001:00006580       $$000000                   0000000180007580     MSVCRT:_svml_ssinf4_sse2_.obj
 0001:00006f80       $$000000                   0000000180007f80     MSVCRT:_guard_dispatch_.obj
 0001:00006fa0       ?dtor$0@?0???0TRaycastManager@rcu@@QEAA@AEAVIAllocator@bento@@@Z@4HA 0000000180007fa0 f   rcu_sdk:raycast_manager.obj
 0001:00006fb0       ?dtor$1@?0???0TRaycastManager@rcu@@QEAA@AEAVIAllocator@bento@@@Z@4HA 0000000180007fb0 f   rcu_sdk:raycast_manager.obj
 0001:00006fc0       ?dtor$2@?0???0TRaycastManager@rcu@@QEAA@AEAVIAllocator@bento@@@Z@4HA 0000000180007fc0 f   rcu_sdk:raycast_manager.obj
 0001:00006fd0       ?dtor$0@?0???0DynamicString@bento@@QEAA@AEAVIAllocator@1@@Z@4HA 0000000180007fd0 f   bento_sdk:dynamic_string.obj
 0001:00006fe0       ?dtor$0@?0???0DynamicString@bento@@QEAA@AEAVIAllocator@1@I@Z@4HA 0000000180007fe0 f   bento_sdk:dynamic_string.obj
 0001:00006ff0       ?dtor$0@?0???0DynamicString@bento@@QEAA@AEAVIAllocator@1@PEBD@Z@4HA 0000000180007ff0 f   bento_sdk:dynamic_string.obj
 0001:00007000       ?dtor$0@?0???0DynamicString@bento@@QEAA@AEBV01@@Z@4HA 0000000180008000 f   bento_sdk:dynamic_string.obj
 0001:00007010       ?dtor$1@?0??substr@string@bento@@YA?AVDynamicString@2@AEBV32@II@Z@4HA 0000000180008010 f   bento_sdk:dynamic_string.obj
 0001:00007020       ?dtor$0@?0???$?6U?$char_traits@D@std@@@std@@YAAEAV?$basic_ostream@DU?$char_traits@D@std@@@0@AEAV10@PEBD@Z@4HA 0000000180008020 f   bento_sdk:matrix4.obj
 0001:00007030       ?dtor$1@?0???$?6U?$char_traits@D@std@@@std@@YAAEAV?$basic_ostream@DU?$char_traits@D@std@@@0@AEAV10@PEBD@Z@4HA 0000000180008030 f   bento_sdk:matrix4.obj
 0001:0000703c       __scrt_is_nonwritable_in_current_image$filt$0 000000018000803c f   MSVCRT:utility.obj
 0001:00007054       ?fin$0@?0??dllmain_crt_process_attach@@YAHQEAUHINSTANCE__@@QEAX@Z@4HA 0000000180008054 f   MSVCRT:dll_dllmain.obj
 0001:0000706b       ?fin$0@?0??dllmain_crt_process_detach@@YAH_N@Z@4HA 000000018000806b f   MSVCRT:dll_dllmain.obj
 0001:00007087       ?filt$0@?0??dllmain_dispatch@@YAHQEAUHINSTANCE__@@KQEAX@Z@4HA 0000000180008087 f   MSVCRT:dll_dllmain.obj
 0001:000070c0       ??__F_base_allocator@@YAXXZ 00000001800080c0 f   allocator_c_api.obj
 0001:000070d0       ??__F_base_allocator@@YAXXZ 00000001800080d0 f   scene_c_api.obj
 0001:000070e0       ??__F__default_system_logger@bento@@YAXXZ 00000001800080e0 f   bento_sdk:log.obj
 0002:00000278       ?_base_allocator$initializer$@@3P6AXXZEA 0000000180009278     allocator_c_api.obj
 0002:00000280       ?_base_allocator$initializer$@@3P6AXXZEA 0000000180009280     scene_c_api.obj
 0002:00000288       ?__default_system_logger$initializer$@bento@@3P6AXXZEA 0000000180009288     bento_sdk:log.obj
 0002:00000380       $cppxdata$??0TRaycastManager@rcu@@QEAA@AEAVIAllocator@bento@@@Z 0000000180009380     rcu_sdk:raycast_manager.obj
 0002:000003a8       $cppxdata$??1TRaycastManager@rcu@@QEAA@XZ 00000001800093a8     rcu_sdk:raycast_manager.obj
 0002:000003d0       $cppxdata$??1?$Vector@I@bento@@QEAA@XZ 00000001800093d0     rcu_sdk:raycast_manager.obj
 0002:000003f8       $cppxdata$??1?$Vector@URTCRayHit16@@@bento@@QEAA@XZ 00000001800093f8     rcu_sdk:raycast_manager.obj
 0002:00000420       $cppxdata$??1?$Vector@URTCRayHit@@@bento@@QEAA@XZ 0000000180009420     rcu_sdk:raycast_manager.obj
 0002:00000518       $cppxdata$??1?$Vector@D@bento@@QEAA@XZ 0000000180009518     rcu_sdk:scene.obj
 0002:00000540       $cppxdata$??1?$Vector@UVector3@bento@@@bento@@QEAA@XZ 0000000180009540     rcu_sdk:scene.obj
 0002:00000568       $cppxdata$??1?$Vector@UIVector3@bento@@@bento@@QEAA@XZ 0000000180009568     rcu_sdk:scene.obj
 0002:00000590       $cppxdata$??1?$Vector@UTGeometry@rcu@@@bento@@QEAA@XZ 0000000180009590     rcu_sdk:scene.obj
 0002:000005b8       $cppxdata$?free@?$Vector@UTGeometry@rcu@@@bento@@QEAAXXZ 00000001800095b8     rcu_sdk:scene.obj
 0002:000005e0       $cppxdata$?clear@?$Vector@UTGeometry@rcu@@@bento@@QEAAXXZ 00000001800095e0     rcu_sdk:scene.obj
 0002:00000630       $cppxdata$??0DynamicString@bento@@QEAA@AEAVIAllocator@1@@Z 0000000180009630     bento_sdk:dynamic_string.obj
 0002:00000658       $cppxdata$??0DynamicString@bento@@QEAA@AEAVIAllocator@1@PEBD@Z 0000000180009658     bento_sdk:dynamic_string.obj
 0002:00000680       $cppxdata$??0DynamicString@bento@@QEAA@AEAVIAllocator@1@I@Z 0000000180009680     bento_sdk:dynamic_string.obj
 0002:000006a8       $cppxdata$??0DynamicString@bento@@QEAA@AEBV01@@Z 00000001800096a8     bento_sdk:dynamic_string.obj
 0002:000006d0       $cppxdata$?substr@string@bento@@YA?AVDynamicString@2@AEBV32@II@Z 00000001800096d0     bento_sdk:dynamic_string.obj
 0002:000006f8       $cppxdata$??$?6U?$char_traits@D@std@@@std@@YAAEAV?$basic_ostream@DU?$char_traits@D@std@@@0@AEAV10@PEBD@Z 00000001800096f8     bento_sdk:matrix4.obj
 0002:00000720       $cppxdata$??1_Sentry_base@?$basic_ostream@DU?$char_traits@D@std@@@std@@QEAA@XZ 0000000180009720     bento_sdk:matrix4.obj
 0002:00000748       $cppxdata$??1sentry@?$basic_ostream@DU?$char_traits@D@std@@@std@@QEAA@XZ 0000000180009748     bento_sdk:matrix4.obj
 0002:00000870       L_abs_mask                 0000000180009870     MSVCRT:_svml_ssinf4_dispatch_.obj
 0002:00000880       L_real_one                 0000000180009880     MSVCRT:_svml_ssinf4_dispatch_.obj
 0002:00000890       L_one_half                 0000000180009890     MSVCRT:_svml_ssinf4_dispatch_.obj
 0002:000008a0       L_two_to_neg_13            00000001800098a0     MSVCRT:_svml_ssinf4_dispatch_.obj
 0002:000008b0       L_pi_over_two              00000001800098b0     MSVCRT:_svml_ssinf4_dispatch_.obj
 0002:000008c0       L_pi_over_two2             00000001800098c0     MSVCRT:_svml_ssinf4_dispatch_.obj
 0002:000008d0       GS_ExceptionPointers       00000001800098d0     MSVCRT:gs_report.obj
 0002:00000d58       $unwind$rcu_create_allocator 0000000180009d58     allocator_c_api.obj
 0002:00000d60       $unwind$??__E_base_allocator@@YAXXZ 0000000180009d60     allocator_c_api.obj
 0002:00000d68       $unwind$rcu_create_raycast_manager 0000000180009d68     raycast_manager_c_api.obj
 0002:00000d70       $unwind$rcu_raycast_manager_setup 0000000180009d70     raycast_manager_c_api.obj
 0002:00000d7c       $unwind$rcu_raycast_manager_release 0000000180009d7c     raycast_manager_c_api.obj
 0002:00000d84       $unwind$rcu_raycast_manager_run 0000000180009d84     raycast_manager_c_api.obj
 0002:00000d98       $unwind$rcu_destroy_raycast_manager 0000000180009d98     raycast_manager_c_api.obj
 0002:00000da0       $unwind$rcu_create_scene   0000000180009da0     scene_c_api.obj
 0002:00000da8       $unwind$rcu_scene_append_geometry 0000000180009da8     scene_c_api.obj
 0002:00000dbc       $unwind$rcu_destroy_scene  0000000180009dbc     scene_c_api.obj
 0002:00000dc4       $unwind$??__E_base_allocator@@YAXXZ 0000000180009dc4     scene_c_api.obj
 0002:00000dcc       $unwind$??0TRaycastManager@rcu@@QEAA@AEAVIAllocator@bento@@@Z 0000000180009dcc     rcu_sdk:raycast_manager.obj
 0002:00000ddc       $stateUnwindMap$??0TRaycastManager@rcu@@QEAA@AEAVIAllocator@bento@@@Z 0000000180009ddc     rcu_sdk:raycast_manager.obj
 0002:00000df8       $ip2state$??0TRaycastManager@rcu@@QEAA@AEAVIAllocator@bento@@@Z 0000000180009df8     rcu_sdk:raycast_manager.obj
 0002:00000e00       $unwind$??1TRaycastManager@rcu@@QEAA@XZ 0000000180009e00     rcu_sdk:raycast_manager.obj
 0002:00000e14       $stateUnwindMap$??1TRaycastManager@rcu@@QEAA@XZ 0000000180009e14     rcu_sdk:raycast_manager.obj
 0002:00000e20       $ip2state$??1TRaycastManager@rcu@@QEAA@XZ 0000000180009e20     rcu_sdk:raycast_manager.obj
 0002:00000e30       $unwind$?setup@TRaycastManager@rcu@@QEAAXAEBUTScene@2@@Z 0000000180009e30     rcu_sdk:raycast_manager.obj
 0002:00000e44       $chain$1$?setup@TRaycastManager@rcu@@QEAAXAEBUTScene@2@@Z 0000000180009e44     rcu_sdk:raycast_manager.obj
 0002:00000e5c       $chain$2$?setup@TRaycastManager@rcu@@QEAAXAEBUTScene@2@@Z 0000000180009e5c     rcu_sdk:raycast_manager.obj
 0002:00000e6c       $unwind$?release@TRaycastManager@rcu@@QEAAXXZ 0000000180009e6c     rcu_sdk:raycast_manager.obj
 0002:00000e74       $unwind$?run@TRaycastManager@rcu@@QEAAXPEBUTRay@2@PEAUTIntersection@2@I_N@Z 0000000180009e74     rcu_sdk:raycast_manager.obj
 0002:00000e90       $chain$0$?run@TRaycastManager@rcu@@QEAAXPEBUTRay@2@PEAUTIntersection@2@I_N@Z 0000000180009e90     rcu_sdk:raycast_manager.obj
 0002:00000ea4       $chain$1$?run@TRaycastManager@rcu@@QEAAXPEBUTRay@2@PEAUTIntersection@2@I_N@Z 0000000180009ea4     rcu_sdk:raycast_manager.obj
 0002:00000eb8       $chain$2$?run@TRaycastManager@rcu@@QEAAXPEBUTRay@2@PEAUTIntersection@2@I_N@Z 0000000180009eb8     rcu_sdk:raycast_manager.obj
 0002:00000ec8       $chain$3$?run@TRaycastManager@rcu@@QEAAXPEBUTRay@2@PEAUTIntersection@2@I_N@Z 0000000180009ec8     rcu_sdk:raycast_manager.obj
 0002:00000ed8       $unwind$??1?$Vector@I@bento@@QEAA@XZ 0000000180009ed8     rcu_sdk:raycast_manager.obj
 0002:00000ee8       $ip2state$??1?$Vector@I@bento@@QEAA@XZ 0000000180009ee8     rcu_sdk:raycast_manager.obj
 0002:00000ef0       $unwind$?resize@?$Vector@I@bento@@QEAAXI@Z 0000000180009ef0     rcu_sdk:raycast_manager.obj
 0002:00000f00       $unwind$?free@?$Vector@I@bento@@QEAAXXZ 0000000180009f00     rcu_sdk:raycast_manager.obj
 0002:00000f08       $unwind$?reserve@?$Vector@I@bento@@QEAAXI@Z 0000000180009f08     rcu_sdk:raycast_manager.obj
 0002:00000f18       $unwind$??1?$Vector@URTCRayHit16@@@bento@@QEAA@XZ 0000000180009f18     rcu_sdk:raycast_manager.obj
 0002:00000f28       $ip2state$??1?$Vector@URTCRayHit16@@@bento@@QEAA@XZ 0000000180009f28     rcu_sdk:raycast_manager.obj
 0002:00000f30       $unwind$?resize@?$Vector@URTCRayHit16@@@bento@@QEAAXI@Z 0000000180009f30     rcu_sdk:raycast_manager.obj
 0002:00000f40       $unwind$?free@?$Vector@URTCRayHit16@@@bento@@QEAAXXZ 0000000180009f40     rcu_sdk:raycast_manager.obj
 0002:00000f48       $unwind$?reserve@?$Vector@URTCRayHit16@@@bento@@QEAAXI@Z 0000000180009f48     rcu_sdk:raycast_manager.obj
 0002:00000f58       $unwind$??1?$Vector@URTCRayHit@@@bento@@QEAA@XZ 0000000180009f58     rcu_sdk:raycast_manager.obj
 0002:00000f68       $ip2state$??1?$Vector@URTCRayHit@@@bento@@QEAA@XZ 0000000180009f68     rcu_sdk:raycast_manager.obj
 0002:00000f70       $unwind$?resize@?$Vector@URTCRayHit@@@bento@@QEAAXI@Z 0000000180009f70     rcu_sdk:raycast_manager.obj
 0002:00000f80       $unwind$?free@?$Vector@URTCRayHit@@@bento@@QEAAXXZ 0000000180009f80     rcu_sdk:raycast_manager.obj
 0002:00000f88       $unwind$?reserve@?$Vector@URTCRayHit@@@bento@@QEAAXI@Z 0000000180009f88     rcu_sdk:raycast_manager.obj
 0002:00000f98       $unwind$?error_handler@rcu@@YAXPEAXW4RTCError@@PEBD@Z 0000000180009f98     rcu_sdk:raycast_manager.obj
 0002:00000fa0       $unwind$?run$omp$1@TRaycastManager@rcu@@QEAAXPEBUTRay@2@PEAUTIntersection@2@I_N@Z 0000000180009fa0     rcu_sdk:raycast_manager.obj
 0002:00000fac       $chain$0$?run$omp$1@TRaycastManager@rcu@@QEAAXPEBUTRay@2@PEAUTIntersection@2@I_N@Z 0000000180009fac     rcu_sdk:raycast_manager.obj
 0002:00000fc0       $chain$5$?run$omp$1@TRaycastManager@rcu@@QEAAXPEBUTRay@2@PEAUTIntersection@2@I_N@Z 0000000180009fc0     rcu_sdk:raycast_manager.obj
 0002:00000fe4       $chain$6$?run$omp$1@TRaycastManager@rcu@@QEAAXPEBUTRay@2@PEAUTIntersection@2@I_N@Z 0000000180009fe4     rcu_sdk:raycast_manager.obj
 0002:00000ff4       $chain$7$?run$omp$1@TRaycastManager@rcu@@QEAAXPEBUTRay@2@PEAUTIntersection@2@I_N@Z 0000000180009ff4     rcu_sdk:raycast_manager.obj
 0002:00001004       $unwind$?run$omp$2@TRaycastManager@rcu@@QEAAXPEBUTRay@2@PEAUTIntersection@2@I_N@Z 000000018000a004     rcu_sdk:raycast_manager.obj
 0002:00001010       $chain$1$?run$omp$2@TRaycastManager@rcu@@QEAAXPEBUTRay@2@PEAUTIntersection@2@I_N@Z 000000018000a010     rcu_sdk:raycast_manager.obj
 0002:00001028       $chain$2$?run$omp$2@TRaycastManager@rcu@@QEAAXPEBUTRay@2@PEAUTIntersection@2@I_N@Z 000000018000a028     rcu_sdk:raycast_manager.obj
 0002:00001038       $unwind$?run$omp$3@TRaycastManager@rcu@@QEAAXPEBUTRay@2@PEAUTIntersection@2@I_N@Z 000000018000a038     rcu_sdk:raycast_manager.obj
 0002:00001044       $chain$0$?run$omp$3@TRaycastManager@rcu@@QEAAXPEBUTRay@2@PEAUTIntersection@2@I_N@Z 000000018000a044     rcu_sdk:raycast_manager.obj
 0002:00001058       $chain$1$?run$omp$3@TRaycastManager@rcu@@QEAAXPEBUTRay@2@PEAUTIntersection@2@I_N@Z 000000018000a058     rcu_sdk:raycast_manager.obj
 0002:0000106c       $chain$2$?run$omp$3@TRaycastManager@rcu@@QEAAXPEBUTRay@2@PEAUTIntersection@2@I_N@Z 000000018000a06c     rcu_sdk:raycast_manager.obj
 0002:0000107c       $chain$3$?run$omp$3@TRaycastManager@rcu@@QEAAXPEBUTRay@2@PEAUTIntersection@2@I_N@Z 000000018000a07c     rcu_sdk:raycast_manager.obj
 0002:0000108c       $unwind$??1?$Vector@D@bento@@QEAA@XZ 000000018000a08c     rcu_sdk:scene.obj
 0002:000010a0       $ip2state$??1?$Vector@D@bento@@QEAA@XZ 000000018000a0a0     rcu_sdk:scene.obj
 0002:000010a8       $unwind$?free@?$Vector@D@bento@@QEAAXXZ 000000018000a0a8     rcu_sdk:scene.obj
 0002:000010b0       $unwind$??1?$Vector@UVector3@bento@@@bento@@QEAA@XZ 000000018000a0b0     rcu_sdk:scene.obj
 0002:000010c0       $ip2state$??1?$Vector@UVector3@bento@@@bento@@QEAA@XZ 000000018000a0c0     rcu_sdk:scene.obj
 0002:000010c8       $unwind$?resize@?$Vector@UVector3@bento@@@bento@@QEAAXI@Z 000000018000a0c8     rcu_sdk:scene.obj
 0002:000010d8       $unwind$?free@?$Vector@UVector3@bento@@@bento@@QEAAXXZ 000000018000a0d8     rcu_sdk:scene.obj
 0002:000010e0       $unwind$?reserve@?$Vector@UVector3@bento@@@bento@@QEAAXI@Z 000000018000a0e0     rcu_sdk:scene.obj
 0002:000010f0       $unwind$??1?$Vector@UIVector3@bento@@@bento@@QEAA@XZ 000000018000a0f0     rcu_sdk:scene.obj
 0002:00001100       $ip2state$??1?$Vector@UIVector3@bento@@@bento@@QEAA@XZ 000000018000a100     rcu_sdk:scene.obj
 0002:00001108       $unwind$?resize@?$Vector@UIVector3@bento@@@bento@@QEAAXI@Z 000000018000a108     rcu_sdk:scene.obj
 0002:00001118       $unwind$?free@?$Vector@UIVector3@bento@@@bento@@QEAAXXZ 000000018000a118     rcu_sdk:scene.obj
 0002:00001120       $unwind$?reserve@?$Vector@UIVector3@bento@@@bento@@QEAAXI@Z 000000018000a120     rcu_sdk:scene.obj
 0002:00001130       $unwind$??0TScene@rcu@@QEAA@AEAVIAllocator@bento@@@Z 000000018000a130     rcu_sdk:scene.obj
 0002:0000113c       $unwind$??1?$Vector@UTGeometry@rcu@@@bento@@QEAA@XZ 000000018000a13c     rcu_sdk:scene.obj
 0002:00001158       $stateUnwindMap$??1?$Vector@UTGeometry@rcu@@@bento@@QEAA@XZ 000000018000a158     rcu_sdk:scene.obj
 0002:00001160       $ip2state$??1?$Vector@UTGeometry@rcu@@@bento@@QEAA@XZ 000000018000a160     rcu_sdk:scene.obj
 0002:00001170       $unwind$?free@?$Vector@UTGeometry@rcu@@@bento@@QEAAXXZ 000000018000a170     rcu_sdk:scene.obj
 0002:0000118c       $stateUnwindMap$?free@?$Vector@UTGeometry@rcu@@@bento@@QEAAXXZ 000000018000a18c     rcu_sdk:scene.obj
 0002:00001198       $ip2state$?free@?$Vector@UTGeometry@rcu@@@bento@@QEAAXXZ 000000018000a198     rcu_sdk:scene.obj
 0002:000011a8       $unwind$?clear@?$Vector@UTGeometry@rcu@@@bento@@QEAAXXZ 000000018000a1a8     rcu_sdk:scene.obj
 0002:000011c4       $stateUnwindMap$?clear@?$Vector@UTGeometry@rcu@@@bento@@QEAAXXZ 000000018000a1c4     rcu_sdk:scene.obj
 0002:000011d0       $ip2state$?clear@?$Vector@UTGeometry@rcu@@@bento@@QEAAXXZ 000000018000a1d0     rcu_sdk:scene.obj
 0002:000011e0       $unwind$?reserve@?$Vector@UTGeometry@rcu@@@bento@@QEAAXI@Z 000000018000a1e0     rcu_sdk:scene.obj
 0002:000011f0       $unwind$?extend@?$Vector@UTGeometry@rcu@@@bento@@QEAAAEAUTGeometry@rcu@@XZ 000000018000a1f0     rcu_sdk:scene.obj
 0002:000011fc       $chain$0$?extend@?$Vector@UTGeometry@rcu@@@bento@@QEAAAEAUTGeometry@rcu@@XZ 000000018000a1fc     rcu_sdk:scene.obj
 0002:00001210       $chain$1$?extend@?$Vector@UTGeometry@rcu@@@bento@@QEAAAEAUTGeometry@rcu@@XZ 000000018000a210     rcu_sdk:scene.obj
 0002:00001220       $unwind$?append_geometry@rcu@@YAXAEAUTScene@1@IIPEAMIPEAHIPEBM@Z 000000018000a220     rcu_sdk:scene.obj
 0002:00001240       $unwind$??0SystemAllocator@bento@@QEAA@XZ 000000018000a240     bento_sdk:system_allocator.obj
 0002:00001248       $unwind$?reallocate@SystemAllocator@bento@@UEAAPEAXPEAX_K11@Z 000000018000a248     bento_sdk:system_allocator.obj
 0002:00001260       $unwind$??_GSystemAllocator@bento@@UEAAPEAXI@Z 000000018000a260     bento_sdk:system_allocator.obj
 0002:0000126c       $unwind$?__handle_fail@bento@@YAXPEBD0H@Z 000000018000a26c     bento_sdk:security.obj
 0002:00001278       $unwind$??__E__default_system_logger@bento@@YAXXZ 000000018000a278     bento_sdk:log.obj
 0002:00001280       $unwind$??0DynamicString@bento@@QEAA@AEAVIAllocator@1@@Z 000000018000a280     bento_sdk:dynamic_string.obj
 0002:00001294       $stateUnwindMap$??0DynamicString@bento@@QEAA@AEAVIAllocator@1@@Z 000000018000a294     bento_sdk:dynamic_string.obj
 0002:000012a0       $ip2state$??0DynamicString@bento@@QEAA@AEAVIAllocator@1@@Z 000000018000a2a0     bento_sdk:dynamic_string.obj
 0002:000012b0       $unwind$??0DynamicString@bento@@QEAA@AEAVIAllocator@1@PEBD@Z 000000018000a2b0     bento_sdk:dynamic_string.obj
 0002:000012c8       $stateUnwindMap$??0DynamicString@bento@@QEAA@AEAVIAllocator@1@PEBD@Z 000000018000a2c8     bento_sdk:dynamic_string.obj
 0002:000012d0       $ip2state$??0DynamicString@bento@@QEAA@AEAVIAllocator@1@PEBD@Z 000000018000a2d0     bento_sdk:dynamic_string.obj
 0002:000012d8       $unwind$??0DynamicString@bento@@QEAA@AEAVIAllocator@1@I@Z 000000018000a2d8     bento_sdk:dynamic_string.obj
 0002:000012ec       $stateUnwindMap$??0DynamicString@bento@@QEAA@AEAVIAllocator@1@I@Z 000000018000a2ec     bento_sdk:dynamic_string.obj
 0002:000012f8       $ip2state$??0DynamicString@bento@@QEAA@AEAVIAllocator@1@I@Z 000000018000a2f8     bento_sdk:dynamic_string.obj
 0002:00001300       $unwind$??0DynamicString@bento@@QEAA@AEBV01@@Z 000000018000a300     bento_sdk:dynamic_string.obj
 0002:00001318       $stateUnwindMap$??0DynamicString@bento@@QEAA@AEBV01@@Z 000000018000a318     bento_sdk:dynamic_string.obj
 0002:00001320       $ip2state$??0DynamicString@bento@@QEAA@AEBV01@@Z 000000018000a320     bento_sdk:dynamic_string.obj
 0002:00001328       $unwind$?resize@DynamicString@bento@@QEAAXI@Z 000000018000a328     bento_sdk:dynamic_string.obj
 0002:00001334       $chain$0$?resize@DynamicString@bento@@QEAAXI@Z 000000018000a334     bento_sdk:dynamic_string.obj
 0002:00001348       $chain$1$?resize@DynamicString@bento@@QEAAXI@Z 000000018000a348     bento_sdk:dynamic_string.obj
 0002:00001358       $unwind$??4DynamicString@bento@@QEAAAEAV01@AEBV01@@Z 000000018000a358     bento_sdk:dynamic_string.obj
 0002:00001368       $unwind$??4DynamicString@bento@@QEAAAEAV01@PEBD@Z 000000018000a368     bento_sdk:dynamic_string.obj
 0002:00001378       $unwind$??YDynamicString@bento@@QEAAAEAV01@PEBD@Z 000000018000a378     bento_sdk:dynamic_string.obj
 0002:0000138c       $unwind$??YDynamicString@bento@@QEAAAEAV01@AEBV01@@Z 000000018000a38c     bento_sdk:dynamic_string.obj
 0002:000013a0       $unwind$?resize@?$Vector@D@bento@@QEAAXI@Z 000000018000a3a0     bento_sdk:dynamic_string.obj
 0002:000013b0       $unwind$?reserve@?$Vector@D@bento@@QEAAXI@Z 000000018000a3b0     bento_sdk:dynamic_string.obj
 0002:000013c0       $unwind$?to_lower_case@string@bento@@YAXAEAVDynamicString@2@@Z 000000018000a3c0     bento_sdk:dynamic_string.obj
 0002:000013c8       $chain$0$?to_lower_case@string@bento@@YAXAEAVDynamicString@2@@Z 000000018000a3c8     bento_sdk:dynamic_string.obj
 0002:000013dc       $chain$1$?to_lower_case@string@bento@@YAXAEAVDynamicString@2@@Z 000000018000a3dc     bento_sdk:dynamic_string.obj
 0002:000013ec       $unwind$?substr@string@bento@@YA?AVDynamicString@2@AEBV32@II@Z 000000018000a3ec     bento_sdk:dynamic_string.obj
 0002:00001408       $stateUnwindMap$?substr@string@bento@@YA?AVDynamicString@2@AEBV32@II@Z 000000018000a408     bento_sdk:dynamic_string.obj
 0002:00001410       $ip2state$?substr@string@bento@@YA?AVDynamicString@2@AEBV32@II@Z 000000018000a410     bento_sdk:dynamic_string.obj
 0002:00001418       $unwind$?pack_type@bento@@YAXAEAV?$Vector@D@1@AEBVDynamicString@1@@Z 000000018000a418     bento_sdk:dynamic_string.obj
 0002:00001424       $unwind$?unpack_type@bento@@YAXAEAPEBDAEAVDynamicString@1@@Z 000000018000a424     bento_sdk:dynamic_string.obj
 0002:00001430       $unwind$??$pack_vector_bytes@D@bento@@YAXAEAV?$Vector@D@0@AEBV10@@Z 000000018000a430     bento_sdk:dynamic_string.obj
 0002:0000143c       $unwind$??$unpack_vector_bytes@D@bento@@YAXAEAPEBDAEAV?$Vector@D@0@@Z 000000018000a43c     bento_sdk:dynamic_string.obj
 0002:00001448       $unwind$?AsPerspective@bento@@YAXAEAUMatrix4@1@MMMM@Z 000000018000a448     bento_sdk:matrix4.obj
 0002:00001458       $unwind$?GetTranslate@bento@@YA?AUVector3@1@AEBUMatrix4@1@@Z 000000018000a458     bento_sdk:matrix4.obj
 0002:00001460       $unwind$?XAxis@bento@@YA?AUVector3@1@AEBUMatrix4@1@@Z 000000018000a460     bento_sdk:matrix4.obj
 0002:00001468       $unwind$?YAxis@bento@@YA?AUVector3@1@AEBUMatrix4@1@@Z 000000018000a468     bento_sdk:matrix4.obj
 0002:00001470       $unwind$?ZAxis@bento@@YA?AUVector3@1@AEBUMatrix4@1@@Z 000000018000a470     bento_sdk:matrix4.obj
 0002:00001478       $unwind$?Det@bento@@YAMAEBUMatrix4@1@@Z 000000018000a478     bento_sdk:matrix4.obj
 0002:00001480       $unwind$?Inverse3x3@bento@@YA?AUMatrix3@1@AEBUMatrix4@1@@Z 000000018000a480     bento_sdk:matrix4.obj
 0002:000014b0       $unwind$?Inverse@bento@@YA?AUMatrix4@1@AEBU21@@Z 000000018000a4b0     bento_sdk:matrix4.obj
 0002:000014e0       $unwind$?Rotate@bento@@YA?AUMatrix4@1@MAEBUVector3@1@@Z 000000018000a4e0     bento_sdk:matrix4.obj
 0002:00001518       $unwind$?RotateXAxis@bento@@YA?AUMatrix4@1@M@Z 000000018000a518     bento_sdk:matrix4.obj
 0002:00001520       $unwind$?RotateYAxis@bento@@YA?AUMatrix4@1@M@Z 000000018000a520     bento_sdk:matrix4.obj
 0002:00001528       $unwind$?RotateZAxis@bento@@YA?AUMatrix4@1@M@Z 000000018000a528     bento_sdk:matrix4.obj
 0002:00001530       $unwind$??Dbento@@YA?AUVector4@0@AEBUMatrix4@0@AEBU10@@Z 000000018000a530     bento_sdk:matrix4.obj
 0002:00001540       $unwind$??Dbento@@YA?AUVector3@0@AEBUMatrix4@0@AEBU10@@Z 000000018000a540     bento_sdk:matrix4.obj
 0002:0000154c       $unwind$??Dbento@@YA?AUMatrix4@0@AEBU10@0@Z 000000018000a54c     bento_sdk:matrix4.obj
 0002:0000157c       $unwind$??6bento@@YAAEAV?$basic_ostream@DU?$char_traits@D@std@@@std@@AEAV12@AEBUMatrix4@0@@Z 000000018000a57c     bento_sdk:matrix4.obj
 0002:00001588       $unwind$??$?6U?$char_traits@D@std@@@std@@YAAEAV?$basic_ostream@DU?$char_traits@D@std@@@0@AEAV10@PEBD@Z 000000018000a588     bento_sdk:matrix4.obj
 0002:000015a8       $stateUnwindMap$??$?6U?$char_traits@D@std@@@std@@YAAEAV?$basic_ostream@DU?$char_traits@D@std@@@0@AEAV10@PEBD@Z 000000018000a5a8     bento_sdk:matrix4.obj
 0002:000015c8       $ip2state$??$?6U?$char_traits@D@std@@@std@@YAAEAV?$basic_ostream@DU?$char_traits@D@std@@@0@AEAV10@PEBD@Z 000000018000a5c8     bento_sdk:matrix4.obj
 0002:000015f8       $unwind$??1_Sentry_base@?$basic_ostream@DU?$char_traits@D@std@@@std@@QEAA@XZ 000000018000a5f8     bento_sdk:matrix4.obj
 0002:00001608       $ip2state$??1_Sentry_base@?$basic_ostream@DU?$char_traits@D@std@@@std@@QEAA@XZ 000000018000a608     bento_sdk:matrix4.obj
 0002:00001610       $unwind$??1sentry@?$basic_ostream@DU?$char_traits@D@std@@@std@@QEAA@XZ 000000018000a610     bento_sdk:matrix4.obj
 0002:00001620       $stateUnwindMap$??1sentry@?$basic_ostream@DU?$char_traits@D@std@@@std@@QEAA@XZ 000000018000a620     bento_sdk:matrix4.obj
 0002:00001628       $ip2state$??1sentry@?$basic_ostream@DU?$char_traits@D@std@@@std@@QEAA@XZ 000000018000a628     bento_sdk:matrix4.obj
 0002:00001638       $unwind$??_GIAllocator@bento@@UEAAPEAXI@Z 000000018000a638     bento_sdk:allocator.obj
 0002:00001640       $unwind$??_GILogger@bento@@UEAAPEAXI@Z 000000018000a640     bento_sdk:system_logger.obj
 0002:00001648       $unwind$?log@SystemLogger@bento@@UEAAXW4Type@LogLevel@2@PEBD1@Z 000000018000a648     bento_sdk:system_logger.obj
 0002:00001654       $unwind$??_GSystemLogger@bento@@UEAAPEAXI@Z 000000018000a654     bento_sdk:system_logger.obj
 0002:0000165c       $unwind$?pack_buffer@bento@@YAXAEAV?$Vector@D@1@IPEBD@Z 000000018000a65c     bento_sdk:stream.obj
 0002:00001668       $chain$1$?pack_buffer@bento@@YAXAEAV?$Vector@D@1@IPEBD@Z 000000018000a668     bento_sdk:stream.obj
 0002:00001680       $chain$2$?pack_buffer@bento@@YAXAEAV?$Vector@D@1@IPEBD@Z 000000018000a680     bento_sdk:stream.obj
 0002:00001694       $chain$3$?pack_buffer@bento@@YAXAEAV?$Vector@D@1@IPEBD@Z 000000018000a694     bento_sdk:stream.obj
 0002:000016a4       $chain$4$?pack_buffer@bento@@YAXAEAV?$Vector@D@1@IPEBD@Z 000000018000a6a4     bento_sdk:stream.obj
 0002:000016b4       $unwind$?unpack_buffer@bento@@YAXAEAPEBDIPEAD@Z 000000018000a6b4     bento_sdk:stream.obj
 0002:000016bc       $chain$0$?unpack_buffer@bento@@YAXAEAPEBDIPEAD@Z 000000018000a6bc     bento_sdk:stream.obj
 0002:000016d0       $chain$1$?unpack_buffer@bento@@YAXAEAPEBDIPEAD@Z 000000018000a6d0     bento_sdk:stream.obj
 0002:000016e0       $unwind$atexit             000000018000a6e0     MSVCRT:utility.obj
 0002:000016e8       $unwind$_onexit            000000018000a6e8     MSVCRT:utility.obj
 0002:000016f0       $unwind$__scrt_is_nonwritable_in_current_image 000000018000a6f0     MSVCRT:utility.obj
 0002:00001710       $unwind$__scrt_is_nonwritable_in_current_image$filt$0 000000018000a710     MSVCRT:utility.obj
 0002:00001718       $unwind$__scrt_acquire_startup_lock 000000018000a718     MSVCRT:utility.obj
 0002:00001720       $unwind$__scrt_release_startup_lock 000000018000a720     MSVCRT:utility.obj
 0002:00001728       $unwind$__scrt_initialize_crt 000000018000a728     MSVCRT:utility.obj
 0002:00001730       $unwind$__scrt_uninitialize_crt 000000018000a730     MSVCRT:utility.obj
 0002:00001738       $unwind$__scrt_initialize_onexit_tables 000000018000a738     MSVCRT:utility.obj
 0002:00001740       $unwind$__scrt_dllmain_exception_filter 000000018000a740     MSVCRT:utility.obj
 0002:00001754       $unwind$__scrt_dllmain_before_initialize_c 000000018000a754     MSVCRT:utility.obj
 0002:0000175c       $unwind$__scrt_dllmain_after_initialize_c 000000018000a75c     MSVCRT:utility.obj
 0002:00001764       $unwind$__scrt_dllmain_uninitialize_c 000000018000a764     MSVCRT:utility.obj
 0002:0000176c       $unwind$__scrt_dllmain_uninitialize_critical 000000018000a76c     MSVCRT:utility.obj
 0002:00001774       $unwind$__scrt_dllmain_crt_thread_attach 000000018000a774     MSVCRT:utility.obj
 0002:0000177c       $unwind$__scrt_dllmain_crt_thread_detach 000000018000a77c     MSVCRT:utility.obj
 0002:00001784       $unwind$?configure_argv@__scrt_narrow_argv_policy@@SAHXZ 000000018000a784     MSVCRT:utility.obj
 0002:0000178c       $unwind$?dllmain_crt_process_attach@@YAHQEAUHINSTANCE__@@QEAX@Z 000000018000a78c     MSVCRT:dll_dllmain.obj
 0002:000017c8       $unwind$?fin$0@?0??dllmain_crt_process_attach@@YAHQEAUHINSTANCE__@@QEAX@Z@4HA 000000018000a7c8     MSVCRT:dll_dllmain.obj
 0002:000017d0       $unwind$?dllmain_crt_process_detach@@YAH_N@Z 000000018000a7d0     MSVCRT:dll_dllmain.obj
 0002:00001808       $unwind$?fin$0@?0??dllmain_crt_process_detach@@YAH_N@Z@4HA 000000018000a808     MSVCRT:dll_dllmain.obj
 0002:00001810       $unwind$?dllmain_crt_dispatch@@YAHQEAUHINSTANCE__@@KQEAX@Z 000000018000a810     MSVCRT:dll_dllmain.obj
 0002:00001818       $unwind$?dllmain_dispatch@@YAHQEAUHINSTANCE__@@KQEAX@Z 000000018000a818     MSVCRT:dll_dllmain.obj
 0002:00001840       $unwind$?filt$0@?0??dllmain_dispatch@@YAHQEAUHINSTANCE__@@KQEAX@Z@4HA 000000018000a840     MSVCRT:dll_dllmain.obj
 0002:00001848       $unwind$_DllMainCRTStartup 000000018000a848     MSVCRT:dll_dllmain.obj
 0002:00001858       $unwind$__GSHandlerCheckCommon 000000018000a858     MSVCRT:_gshandler_.obj
 0002:00001860       $unwind$__GSHandlerCheck   000000018000a860     MSVCRT:_gshandler_.obj
 0002:00001868       $xdatasym                  000000018000a868     MSVCRT:_amdsecgs_.obj
 0002:0000186c       $unwind$__isa_available_init 000000018000a86c     MSVCRT:_cpu_disp_.obj
 0002:00001880       $unwind$__scrt_get_show_window_mode 000000018000a880     MSVCRT:utility_desktop.obj
 0002:00001888       $unwind$__scrt_is_managed_app 000000018000a888     MSVCRT:utility_desktop.obj
 0002:00001890       $unwind$__scrt_fastfail    000000018000a890     MSVCRT:utility_desktop.obj
 0002:000018a0       $unwind$__scrt_unhandled_exception_filter 000000018000a8a0     MSVCRT:utility_desktop.obj
 0002:000018a8       $unwind$__security_init_cookie 000000018000a8a8     MSVCRT:gs_support.obj
 0002:000018b4       $unwind$__get_entropy      000000018000a8b4     MSVCRT:gs_support.obj
 0002:000018bc       $unwind$DllMain            000000018000a8bc     MSVCRT:dll_dllmain_stub.obj
 0002:000018c4       $unwind$__scrt_initialize_default_local_stdio_options 000000018000a8c4     MSVCRT:default_local_stdio_options.obj
 0002:000018cc       $unwind$_RTC_Initialize    000000018000a8cc     MSVCRT:_initsect_.obj
 0002:000018d8       $unwind$_RTC_Terminate     000000018000a8d8     MSVCRT:_initsect_.obj
 0002:000018e4       $unwind$__report_securityfailure 000000018000a8e4     MSVCRT:gs_report.obj
 0002:000018ec       $unwind$__report_securityfailureEx 000000018000a8ec     MSVCRT:gs_report.obj
 0002:000018f4       $unwind$__report_rangecheckfailure 000000018000a8f4     MSVCRT:gs_report.obj
 0002:000018fc       $unwind$__report_gsfailure 000000018000a8fc     MSVCRT:gs_report.obj
 0002:00001904       $unwind$capture_current_context 000000018000a904     MSVCRT:gs_report.obj
 0002:00001910       $unwind$capture_previous_context 000000018000a910     MSVCRT:gs_report.obj
 0002:0000191c       $unwind$__raise_securityfailure 000000018000a91c     MSVCRT:gs_report.obj
 0002:00001928       $xdatasym                  000000018000a928     MSVCRT:_svml_ssinf4_sse2_.obj
 0002:00001938       $xdatasym                  000000018000a938     MSVCRT:_guard_dispatch_.obj
 0002:00001940       .edata                     000000018000a940     rcu_dylib.exp
 0002:00001968       rgpv                       000000018000a968     rcu_dylib.exp
 0002:00001990       rgszName                   000000018000a990     rcu_dylib.exp
 0002:000019b8       rgwOrd                     000000018000a9b8     rcu_dylib.exp
 0002:000019cc       szName                     000000018000a9cc     rcu_dylib.exp
 0002:000019da       $N00001                    000000018000a9da     rcu_dylib.exp
 0002:000019ef       $N00002                    000000018000a9ef     rcu_dylib.exp
 0002:00001a0a       $N00003                    000000018000aa0a     rcu_dylib.exp
 0002:00001a1b       $N00004                    000000018000aa1b     rcu_dylib.exp
 0002:00001a31       $N00005                    000000018000aa31     rcu_dylib.exp
 0002:00001a4d       $N00006                    000000018000aa4d     rcu_dylib.exp
 0002:00001a5f       $N00007                    000000018000aa5f     rcu_dylib.exp
 0002:00001a7b       $N00008                    000000018000aa7b     rcu_dylib.exp
 0002:00001a93       $N00009                    000000018000aa93     rcu_dylib.exp
 0002:00001aad       $N00010                    000000018000aaad     rcu_dylib.exp
 0002:00001f02       .idata$6                   000000018000af02     embree3:embree3.dll
 0002:000020d8       .idata$6                   000000018000b0d8     msvcprt:MSVCP140.dll
 0002:0000212c       .idata$6                   000000018000b12c     VCOMP:VCOMP140.DLL
 0002:000021ba       .idata$6                   000000018000b1ba     vcruntime:VCRUNTIME140.dll
 0002:0000230a       .idata$6                   000000018000b30a     ucrt:api-ms-win-crt-heap-l1-1-0.dll
 0002:0000232a       .idata$6                   000000018000b32a     ucrt:api-ms-win-crt-string-l1-1-0.dll
 0002:0000234c       .idata$6                   000000018000b34c     ucrt:api-ms-win-crt-math-l1-1-0.dll
 0002:0000236c       .idata$6                   000000018000b36c     ucrt:api-ms-win-crt-runtime-l1-1-0.dll
 0002:0000251a       .idata$6                   000000018000b51a     kernel32:KERNEL32.dll
 0003:00000050       ?_base_allocator@@3VSystemAllocator@bento@@A 000000018000c050     allocator_c_api.obj
 0003:00000058       ?_base_allocator@@3VSystemAllocator@bento@@A 000000018000c058     scene_c_api.obj
 0003:00000078       ?is_initialized_as_dll@@3_NA 000000018000c078     MSVCRT:utility.obj
 0003:00000079       ?module_local_atexit_table_initialized@@3_NA 000000018000c079     MSVCRT:utility.obj
 0003:00000080       ?module_local_atexit_table@@3U_onexit_table_t@@A 000000018000c080     MSVCRT:utility.obj
 0003:00000098       ?module_local_at_quick_exit_table@@3U_onexit_table_t@@A 000000018000c098     MSVCRT:utility.obj
 0003:000000b0       ?__proc_attached@@3HA      000000018000c0b0     MSVCRT:dll_dllmain.obj
 0003:000000e0       GS_ExceptionRecord         000000018000c0e0     MSVCRT:gs_report.obj
 0003:00000180       GS_ContextRecord           000000018000c180     MSVCRT:gs_report.obj
 0004:00000000       $pdata$rcu_create_allocator 000000018000d000     allocator_c_api.obj
 0004:0000000c       $pdata$??__E_base_allocator@@YAXXZ 000000018000d00c     allocator_c_api.obj
 0004:00000018       $pdata$rcu_create_raycast_manager 000000018000d018     raycast_manager_c_api.obj
 0004:00000024       $pdata$rcu_raycast_manager_setup 000000018000d024     raycast_manager_c_api.obj
 0004:00000030       $pdata$rcu_raycast_manager_release 000000018000d030     raycast_manager_c_api.obj
 0004:0000003c       $pdata$rcu_raycast_manager_run 000000018000d03c     raycast_manager_c_api.obj
 0004:00000048       $pdata$rcu_destroy_raycast_manager 000000018000d048     raycast_manager_c_api.obj
 0004:00000054       $pdata$rcu_create_scene    000000018000d054     scene_c_api.obj
 0004:00000060       $pdata$rcu_scene_append_geometry 000000018000d060     scene_c_api.obj
 0004:0000006c       $pdata$rcu_destroy_scene   000000018000d06c     scene_c_api.obj
 0004:00000078       $pdata$??__E_base_allocator@@YAXXZ 000000018000d078     scene_c_api.obj
 0004:00000084       $pdata$??0TRaycastManager@rcu@@QEAA@AEAVIAllocator@bento@@@Z 000000018000d084     rcu_sdk:raycast_manager.obj
 0004:00000090       $pdata$??1TRaycastManager@rcu@@QEAA@XZ 000000018000d090     rcu_sdk:raycast_manager.obj
 0004:0000009c       $pdata$?setup@TRaycastManager@rcu@@QEAAXAEBUTScene@2@@Z 000000018000d09c     rcu_sdk:raycast_manager.obj
 0004:000000a8       $pdata$1$?setup@TRaycastManager@rcu@@QEAAXAEBUTScene@2@@Z 000000018000d0a8     rcu_sdk:raycast_manager.obj
 0004:000000b4       $pdata$2$?setup@TRaycastManager@rcu@@QEAAXAEBUTScene@2@@Z 000000018000d0b4     rcu_sdk:raycast_manager.obj
 0004:000000c0       $pdata$?release@TRaycastManager@rcu@@QEAAXXZ 000000018000d0c0     rcu_sdk:raycast_manager.obj
 0004:000000cc       $pdata$?run@TRaycastManager@rcu@@QEAAXPEBUTRay@2@PEAUTIntersection@2@I_N@Z 000000018000d0cc     rcu_sdk:raycast_manager.obj
 0004:000000d8       $pdata$0$?run@TRaycastManager@rcu@@QEAAXPEBUTRay@2@PEAUTIntersection@2@I_N@Z 000000018000d0d8     rcu_sdk:raycast_manager.obj
 0004:000000e4       $pdata$1$?run@TRaycastManager@rcu@@QEAAXPEBUTRay@2@PEAUTIntersection@2@I_N@Z 000000018000d0e4     rcu_sdk:raycast_manager.obj
 0004:000000f0       $pdata$2$?run@TRaycastManager@rcu@@QEAAXPEBUTRay@2@PEAUTIntersection@2@I_N@Z 000000018000d0f0     rcu_sdk:raycast_manager.obj
 0004:000000fc       $pdata$3$?run@TRaycastManager@rcu@@QEAAXPEBUTRay@2@PEAUTIntersection@2@I_N@Z 000000018000d0fc     rcu_sdk:raycast_manager.obj
 0004:00000108       $pdata$??1?$Vector@I@bento@@QEAA@XZ 000000018000d108     rcu_sdk:raycast_manager.obj
 0004:00000114       $pdata$?resize@?$Vector@I@bento@@QEAAXI@Z 000000018000d114     rcu_sdk:raycast_manager.obj
 0004:00000120       $pdata$?free@?$Vector@I@bento@@QEAAXXZ 000000018000d120     rcu_sdk:raycast_manager.obj
 0004:0000012c       $pdata$?reserve@?$Vector@I@bento@@QEAAXI@Z 000000018000d12c     rcu_sdk:raycast_manager.obj
 0004:00000138       $pdata$??1?$Vector@URTCRayHit16@@@bento@@QEAA@XZ 000000018000d138     rcu_sdk:raycast_manager.obj
 0004:00000144       $pdata$?resize@?$Vector@URTCRayHit16@@@bento@@QEAAXI@Z 000000018000d144     rcu_sdk:raycast_manager.obj
 0004:00000150       $pdata$?free@?$Vector@URTCRayHit16@@@bento@@QEAAXXZ 000000018000d150     rcu_sdk:raycast_manager.obj
 0004:0000015c       $pdata$?reserve@?$Vector@URTCRayHit16@@@bento@@QEAAXI@Z 000000018000d15c     rcu_sdk:raycast_manager.obj
 0004:00000168       $pdata$??1?$Vector@URTCRayHit@@@bento@@QEAA@XZ 000000018000d168     rcu_sdk:raycast_manager.obj
 0004:00000174       $pdata$?resize@?$Vector@URTCRayHit@@@bento@@QEAAXI@Z 000000018000d174     rcu_sdk:raycast_manager.obj
 0004:00000180       $pdata$?free@?$Vector@URTCRayHit@@@bento@@QEAAXXZ 000000018000d180     rcu_sdk:raycast_manager.obj
 0004:0000018c       $pdata$?reserve@?$Vector@URTCRayHit@@@bento@@QEAAXI@Z 000000018000d18c     rcu_sdk:raycast_manager.obj
 0004:00000198       $pdata$?error_handler@rcu@@YAXPEAXW4RTCError@@PEBD@Z 000000018000d198     rcu_sdk:raycast_manager.obj
 0004:000001a4       $pdata$?run$omp$1@TRaycastManager@rcu@@QEAAXPEBUTRay@2@PEAUTIntersection@2@I_N@Z 000000018000d1a4     rcu_sdk:raycast_manager.obj
 0004:000001b0       $pdata$0$?run$omp$1@TRaycastManager@rcu@@QEAAXPEBUTRay@2@PEAUTIntersection@2@I_N@Z 000000018000d1b0     rcu_sdk:raycast_manager.obj
 0004:000001bc       $pdata$5$?run$omp$1@TRaycastManager@rcu@@QEAAXPEBUTRay@2@PEAUTIntersection@2@I_N@Z 000000018000d1bc     rcu_sdk:raycast_manager.obj
 0004:000001c8       $pdata$6$?run$omp$1@TRaycastManager@rcu@@QEAAXPEBUTRay@2@PEAUTIntersection@2@I_N@Z 000000018000d1c8     rcu_sdk:raycast_manager.obj
 0004:000001d4       $pdata$7$?run$omp$1@TRaycastManager@rcu@@QEAAXPEBUTRay@2@PEAUTIntersection@2@I_N@Z 000000018000d1d4     rcu_sdk:raycast_manager.obj
 0004:000001e0       $pdata$?run$omp$2@TRaycastManager@rcu@@QEAAXPEBUTRay@2@PEAUTIntersection@2@I_N@Z 000000018000d1e0     rcu_sdk:raycast_manager.obj
 0004:000001ec       $pdata$1$?run$omp$2@TRaycastManager@rcu@@QEAAXPEBUTRay@2@PEAUTIntersection@2@I_N@Z 000000018000d1ec     rcu_sdk:raycast_manager.obj
 0004:000001f8       $pdata$2$?run$omp$2@TRaycastManager@rcu@@QEAAXPEBUTRay@2@PEAUTIntersection@2@I_N@Z 000000018000d1f8     rcu_sdk:raycast_manager.obj
 0004:00000204       $pdata$?run$omp$3@TRaycastManager@rcu@@QEAAXPEBUTRay@2@PEAUTIntersection@2@I_N@Z 000000018000d204     rcu_sdk:raycast_manager.obj
 0004:00000210       $pdata$0$?run$omp$3@TRaycastManager@rcu@@QEAAXPEBUTRay@2@PEAUTIntersection@2@I_N@Z 000000018000d210     rcu_sdk:raycast_manager.obj
 0004:0000021c       $pdata$1$?run$omp$3@TRaycastManager@rcu@@QEAAXPEBUTRay@2@PEAUTIntersection@2@I_N@Z 000000018000d21c     rcu_sdk:raycast_manager.obj
 0004:00000228       $pdata$2$?run$omp$3@TRaycastManager@rcu@@QEAAXPEBUTRay@2@PEAUTIntersection@2@I_N@Z 000000018000d228     rcu_sdk:raycast_manager.obj
 0004:00000234       $pdata$3$?run$omp$3@TRaycastManager@rcu@@QEAAXPEBUTRay@2@PEAUTIntersection@2@I_N@Z 000000018000d234     rcu_sdk:raycast_manager.obj
 0004:00000240       $pdata$??1?$Vector@D@bento@@QEAA@XZ 000000018000d240     rcu_sdk:scene.obj
 0004:0000024c       $pdata$?free@?$Vector@D@bento@@QEAAXXZ 000000018000d24c     rcu_sdk:scene.obj
 0004:00000258       $pdata$??1?$Vector@UVector3@bento@@@bento@@QEAA@XZ 000000018000d258     rcu_sdk:scene.obj
 0004:00000264       $pdata$?resize@?$Vector@UVector3@bento@@@bento@@QEAAXI@Z 000000018000d264     rcu_sdk:scene.obj
 0004:00000270       $pdata$?free@?$Vector@UVector3@bento@@@bento@@QEAAXXZ 000000018000d270     rcu_sdk:scene.obj
 0004:0000027c       $pdata$?reserve@?$Vector@UVector3@bento@@@bento@@QEAAXI@Z 000000018000d27c     rcu_sdk:scene.obj
 0004:00000288       $pdata$??1?$Vector@UIVector3@bento@@@bento@@QEAA@XZ 000000018000d288     rcu_sdk:scene.obj
 0004:00000294       $pdata$?resize@?$Vector@UIVector3@bento@@@bento@@QEAAXI@Z 000000018000d294     rcu_sdk:scene.obj
 0004:000002a0       $pdata$?free@?$Vector@UIVector3@bento@@@bento@@QEAAXXZ 000000018000d2a0     rcu_sdk:scene.obj
 0004:000002ac       $pdata$?reserve@?$Vector@UIVector3@bento@@@bento@@QEAAXI@Z 000000018000d2ac     rcu_sdk:scene.obj
 0004:000002b8       $pdata$??0TScene@rcu@@QEAA@AEAVIAllocator@bento@@@Z 000000018000d2b8     rcu_sdk:scene.obj
 0004:000002c4       $pdata$??1?$Vector@UTGeometry@rcu@@@bento@@QEAA@XZ 000000018000d2c4     rcu_sdk:scene.obj
 0004:000002d0       $pdata$?free@?$Vector@UTGeometry@rcu@@@bento@@QEAAXXZ 000000018000d2d0     rcu_sdk:scene.obj
 0004:000002dc       $pdata$?clear@?$Vector@UTGeometry@rcu@@@bento@@QEAAXXZ 000000018000d2dc     rcu_sdk:scene.obj
 0004:000002e8       $pdata$?reserve@?$Vector@UTGeometry@rcu@@@bento@@QEAAXI@Z 000000018000d2e8     rcu_sdk:scene.obj
 0004:000002f4       $pdata$?extend@?$Vector@UTGeometry@rcu@@@bento@@QEAAAEAUTGeometry@rcu@@XZ 000000018000d2f4     rcu_sdk:scene.obj
 0004:00000300       $pdata$0$?extend@?$Vector@UTGeometry@rcu@@@bento@@QEAAAEAUTGeometry@rcu@@XZ 000000018000d300     rcu_sdk:scene.obj
 0004:0000030c       $pdata$1$?extend@?$Vector@UTGeometry@rcu@@@bento@@QEAAAEAUTGeometry@rcu@@XZ 000000018000d30c     rcu_sdk:scene.obj
 0004:00000318       $pdata$?append_geometry@rcu@@YAXAEAUTScene@1@IIPEAMIPEAHIPEBM@Z 000000018000d318     rcu_sdk:scene.obj
 0004:00000324       $pdata$??0SystemAllocator@bento@@QEAA@XZ 000000018000d324     bento_sdk:system_allocator.obj
 0004:00000330       $pdata$?reallocate@SystemAllocator@bento@@UEAAPEAXPEAX_K11@Z 000000018000d330     bento_sdk:system_allocator.obj
 0004:0000033c       $pdata$??_GSystemAllocator@bento@@UEAAPEAXI@Z 000000018000d33c     bento_sdk:system_allocator.obj
 0004:00000348       $pdata$?__handle_fail@bento@@YAXPEBD0H@Z 000000018000d348     bento_sdk:security.obj
 0004:00000354       $pdata$??__E__default_system_logger@bento@@YAXXZ 000000018000d354     bento_sdk:log.obj
 0004:00000360       $pdata$??0DynamicString@bento@@QEAA@AEAVIAllocator@1@@Z 000000018000d360     bento_sdk:dynamic_string.obj
 0004:0000036c       $pdata$??0DynamicString@bento@@QEAA@AEAVIAllocator@1@PEBD@Z 000000018000d36c     bento_sdk:dynamic_string.obj
 0004:00000378       $pdata$??0DynamicString@bento@@QEAA@AEAVIAllocator@1@I@Z 000000018000d378     bento_sdk:dynamic_string.obj
 0004:00000384       $pdata$??0DynamicString@bento@@QEAA@AEBV01@@Z 000000018000d384     bento_sdk:dynamic_string.obj
 0004:00000390       $pdata$?resize@DynamicString@bento@@QEAAXI@Z 000000018000d390     bento_sdk:dynamic_string.obj
 0004:0000039c       $pdata$0$?resize@DynamicString@bento@@QEAAXI@Z 000000018000d39c     bento_sdk:dynamic_string.obj
 0004:000003a8       $pdata$1$?resize@DynamicString@bento@@QEAAXI@Z 000000018000d3a8     bento_sdk:dynamic_string.obj
 0004:000003b4       $pdata$??4DynamicString@bento@@QEAAAEAV01@AEBV01@@Z 000000018000d3b4     bento_sdk:dynamic_string.obj
 0004:000003c0       $pdata$??4DynamicString@bento@@QEAAAEAV01@PEBD@Z 000000018000d3c0     bento_sdk:dynamic_string.obj
 0004:000003cc       $pdata$??YDynamicString@bento@@QEAAAEAV01@PEBD@Z 000000018000d3cc     bento_sdk:dynamic_string.obj
 0004:000003d8       $pdata$??YDynamicString@bento@@QEAAAEAV01@AEBV01@@Z 000000018000d3d8     bento_sdk:dynamic_string.obj
 0004:000003e4       $pdata$?resize@?$Vector@D@bento@@QEAAXI@Z 000000018000d3e4     bento_sdk:dynamic_string.obj
 0004:000003f0       $pdata$?reserve@?$Vector@D@bento@@QEAAXI@Z 000000018000d3f0     bento_sdk:dynamic_string.obj
 0004:000003fc       $pdata$?to_lower_case@string@bento@@YAXAEAVDynamicString@2@@Z 000000018000d3fc     bento_sdk:dynamic_string.obj
 0004:00000408       $pdata$0$?to_lower_case@string@bento@@YAXAEAVDynamicString@2@@Z 000000018000d408     bento_sdk:dynamic_string.obj
 0004:00000414       $pdata$1$?to_lower_case@string@bento@@YAXAEAVDynamicString@2@@Z 000000018000d414     bento_sdk:dynamic_string.obj
 0004:00000420       $pdata$?substr@string@bento@@YA?AVDynamicString@2@AEBV32@II@Z 000000018000d420     bento_sdk:dynamic_string.obj
 0004:0000042c       $pdata$?pack_type@bento@@YAXAEAV?$Vector@D@1@AEBVDynamicString@1@@Z 000000018000d42c     bento_sdk:dynamic_string.obj
 0004:00000438       $pdata$?unpack_type@bento@@YAXAEAPEBDAEAVDynamicString@1@@Z 000000018000d438     bento_sdk:dynamic_string.obj
 0004:00000444       $pdata$??$pack_vector_bytes@D@bento@@YAXAEAV?$Vector@D@0@AEBV10@@Z 000000018000d444     bento_sdk:dynamic_string.obj
 0004:00000450       $pdata$??$unpack_vector_bytes@D@bento@@YAXAEAPEBDAEAV?$Vector@D@0@@Z 000000018000d450     bento_sdk:dynamic_string.obj
 0004:0000045c       $pdata$?AsPerspective@bento@@YAXAEAUMatrix4@1@MMMM@Z 000000018000d45c     bento_sdk:matrix4.obj
 0004:00000468       $pdata$?GetTranslate@bento@@YA?AUVector3@1@AEBUMatrix4@1@@Z 000000018000d468     bento_sdk:matrix4.obj
 0004:00000474       $pdata$?XAxis@bento@@YA?AUVector3@1@AEBUMatrix4@1@@Z 000000018000d474     bento_sdk:matrix4.obj
 0004:00000480       $pdata$?YAxis@bento@@YA?AUVector3@1@AEBUMatrix4@1@@Z 000000018000d480     bento_sdk:matrix4.obj
 0004:0000048c       $pdata$?ZAxis@bento@@YA?AUVector3@1@AEBUMatrix4@1@@Z 000000018000d48c     bento_sdk:matrix4.obj
 0004:00000498       $pdata$?Det@bento@@YAMAEBUMatrix4@1@@Z 000000018000d498     bento_sdk:matrix4.obj
 0004:000004a4       $pdata$?Inverse3x3@bento@@YA?AUMatrix3@1@AEBUMatrix4@1@@Z 000000018000d4a4     bento_sdk:matrix4.obj
 0004:000004b0       $pdata$?Inverse@bento@@YA?AUMatrix4@1@AEBU21@@Z 000000018000d4b0     bento_sdk:matrix4.obj
 0004:000004bc       $pdata$?Rotate@bento@@YA?AUMatrix4@1@MAEBUVector3@1@@Z 000000018000d4bc     bento_sdk:matrix4.obj
 0004:000004c8       $pdata$?RotateXAxis@bento@@YA?AUMatrix4@1@M@Z 000000018000d4c8     bento_sdk:matrix4.obj
 0004:000004d4       $pdata$?RotateYAxis@bento@@YA?AUMatrix4@1@M@Z 000000018000d4d4     bento_sdk:matrix4.obj
 0004:000004e0       $pdata$?RotateZAxis@bento@@YA?AUMatrix4@1@M@Z 000000018000d4e0     bento_sdk:matrix4.obj
 0004:000004ec       $pdata$??Dbento@@YA?AUVector4@0@AEBUMatrix4@0@AEBU10@@Z 000000018000d4ec     bento_sdk:matrix4.obj
 0004:000004f8       $pdata$??Dbento@@YA?AUVector3@0@AEBUMatrix4@0@AEBU10@@Z 000000018000d4f8     bento_sdk:matrix4.obj
 0004:00000504       $pdata$??Dbento@@YA?AUMatrix4@0@AEBU10@0@Z 000000018000d504     bento_sdk:matrix4.obj
 0004:00000510       $pdata$??6bento@@YAAEAV?$basic_ostream@DU?$char_traits@D@std@@@std@@AEAV12@AEBUMatrix4@0@@Z 000000018000d510     bento_sdk:matrix4.obj
 0004:0000051c       $pdata$??$?6U?$char_traits@D@std@@@std@@YAAEAV?$basic_ostream@DU?$char_traits@D@std@@@0@AEAV10@PEBD@Z 000000018000d51c     bento_sdk:matrix4.obj
 0004:00000528       $pdata$??1_Sentry_base@?$basic_ostream@DU?$char_traits@D@std@@@std@@QEAA@XZ 000000018000d528     bento_sdk:matrix4.obj
 0004:00000534       $pdata$??1sentry@?$basic_ostream@DU?$char_traits@D@std@@@std@@QEAA@XZ 000000018000d534     bento_sdk:matrix4.obj
 0004:00000540       $pdata$??_GIAllocator@bento@@UEAAPEAXI@Z 000000018000d540     bento_sdk:allocator.obj
 0004:0000054c       $pdata$??_GILogger@bento@@UEAAPEAXI@Z 000000018000d54c     bento_sdk:system_logger.obj
 0004:00000558       $pdata$?log@SystemLogger@bento@@UEAAXW4Type@LogLevel@2@PEBD1@Z 000000018000d558     bento_sdk:system_logger.obj
 0004:00000564       $pdata$??_GSystemLogger@bento@@UEAAPEAXI@Z 000000018000d564     bento_sdk:system_logger.obj
 0004:00000570       $pdata$?pack_buffer@bento@@YAXAEAV?$Vector@D@1@IPEBD@Z 000000018000d570     bento_sdk:stream.obj
 0004:0000057c       $pdata$1$?pack_buffer@bento@@YAXAEAV?$Vector@D@1@IPEBD@Z 000000018000d57c     bento_sdk:stream.obj
 0004:00000588       $pdata$2$?pack_buffer@bento@@YAXAEAV?$Vector@D@1@IPEBD@Z 000000018000d588     bento_sdk:stream.obj
 0004:00000594       $pdata$3$?pack_buffer@bento@@YAXAEAV?$Vector@D@1@IPEBD@Z 000000018000d594     bento_sdk:stream.obj
 0004:000005a0       $pdata$4$?pack_buffer@bento@@YAXAEAV?$Vector@D@1@IPEBD@Z 000000018000d5a0     bento_sdk:stream.obj
 0004:000005ac       $pdata$?unpack_buffer@bento@@YAXAEAPEBDIPEAD@Z 000000018000d5ac     bento_sdk:stream.obj
 0004:000005b8       $pdata$0$?unpack_buffer@bento@@YAXAEAPEBDIPEAD@Z 000000018000d5b8     bento_sdk:stream.obj
 0004:000005c4       $pdata$1$?unpack_buffer@bento@@YAXAEAPEBDIPEAD@Z 000000018000d5c4     bento_sdk:stream.obj
 0004:000005d0       $pdata$atexit              000000018000d5d0     MSVCRT:utility.obj
 0004:000005dc       $pdata$_onexit             000000018000d5dc     MSVCRT:utility.obj
 0004:000005e8       $pdata$__scrt_is_nonwritable_in_current_image 000000018000d5e8     MSVCRT:utility.obj
 0004:000005f4       $pdata$__scrt_is_nonwritable_in_current_image$filt$0 000000018000d5f4     MSVCRT:utility.obj
 0004:00000600       $pdata$__scrt_acquire_startup_lock 000000018000d600     MSVCRT:utility.obj
 0004:0000060c       $pdata$__scrt_release_startup_lock 000000018000d60c     MSVCRT:utility.obj
 0004:00000618       $pdata$__scrt_initialize_crt 000000018000d618     MSVCRT:utility.obj
 0004:00000624       $pdata$__scrt_uninitialize_crt 000000018000d624     MSVCRT:utility.obj
 0004:00000630       $pdata$__scrt_initialize_onexit_tables 000000018000d630     MSVCRT:utility.obj
 0004:0000063c       $pdata$__scrt_dllmain_exception_filter 000000018000d63c     MSVCRT:utility.obj
 0004:00000648       $pdata$__scrt_dllmain_before_initialize_c 000000018000d648     MSVCRT:utility.obj
 0004:00000654       $pdata$__scrt_dllmain_after_initialize_c 000000018000d654     MSVCRT:utility.obj
 0004:00000660       $pdata$__scrt_dllmain_uninitialize_c 000000018000d660     MSVCRT:utility.obj
 0004:0000066c       $pdata$__scrt_dllmain_uninitialize_critical 000000018000d66c     MSVCRT:utility.obj
 0004:00000678       $pdata$__scrt_dllmain_crt_thread_attach 000000018000d678     MSVCRT:utility.obj
 0004:00000684       $pdata$__scrt_dllmain_crt_thread_detach 000000018000d684     MSVCRT:utility.obj
 0004:00000690       $pdata$?configure_argv@__scrt_narrow_argv_policy@@SAHXZ 000000018000d690     MSVCRT:utility.obj
 0004:0000069c       $pdata$?dllmain_crt_process_attach@@YAHQEAUHINSTANCE__@@QEAX@Z 000000018000d69c     MSVCRT:dll_dllmain.obj
 0004:000006a8       $pdata$?fin$0@?0??dllmain_crt_process_attach@@YAHQEAUHINSTANCE__@@QEAX@Z@4HA 000000018000d6a8     MSVCRT:dll_dllmain.obj
 0004:000006b4       $pdata$?dllmain_crt_process_detach@@YAH_N@Z 000000018000d6b4     MSVCRT:dll_dllmain.obj
 0004:000006c0       $pdata$?fin$0@?0??dllmain_crt_process_detach@@YAH_N@Z@4HA 000000018000d6c0     MSVCRT:dll_dllmain.obj
 0004:000006cc       $pdata$?dllmain_crt_dispatch@@YAHQEAUHINSTANCE__@@KQEAX@Z 000000018000d6cc     MSVCRT:dll_dllmain.obj
 0004:000006d8       $pdata$?dllmain_dispatch@@YAHQEAUHINSTANCE__@@KQEAX@Z 000000018000d6d8     MSVCRT:dll_dllmain.obj
 0004:000006e4       $pdata$?filt$0@?0??dllmain_dispatch@@YAHQEAUHINSTANCE__@@KQEAX@Z@4HA 000000018000d6e4     MSVCRT:dll_dllmain.obj
 0004:000006f0       $pdata$_DllMainCRTStartup  000000018000d6f0     MSVCRT:dll_dllmain.obj
 0004:000006fc       $pdata$__GSHandlerCheckCommon 000000018000d6fc     MSVCRT:_gshandler_.obj
 0004:00000708       $pdata$__GSHandlerCheck    000000018000d708     MSVCRT:_gshandler_.obj
 0004:00000720       $pdata$__isa_available_init 000000018000d720     MSVCRT:_cpu_disp_.obj
 0004:0000072c       $pdata$__scrt_get_show_window_mode 000000018000d72c     MSVCRT:utility_desktop.obj
 0004:00000738       $pdata$__scrt_is_managed_app 000000018000d738     MSVCRT:utility_desktop.obj
 0004:00000744       $pdata$__scrt_fastfail     000000018000d744     MSVCRT:utility_desktop.obj
 0004:00000750       $pdata$__scrt_unhandled_exception_filter 000000018000d750     MSVCRT:utility_desktop.obj
 0004:0000075c       $pdata$__security_init_cookie 000000018000d75c     MSVCRT:gs_support.obj
 0004:00000768       $pdata$__get_entropy       000000018000d768     MSVCRT:gs_support.obj
 0004:00000774       $pdata$DllMain             000000018000d774     MSVCRT:dll_dllmain_stub.obj
 0004:00000780       $pdata$__scrt_initialize_default_local_stdio_options 000000018000d780     MSVCRT:default_local_stdio_options.obj
 0004:0000078c       $pdata$_RTC_Initialize     000000018000d78c     MSVCRT:_initsect_.obj
 0004:00000798       $pdata$_RTC_Terminate      000000018000d798     MSVCRT:_initsect_.obj
 0004:000007a4       $pdata$__report_securityfailure 000000018000d7a4     MSVCRT:gs_report.obj
 0004:000007b0       $pdata$__report_securityfailureEx 000000018000d7b0     MSVCRT:gs_report.obj
 0004:000007bc       $pdata$__report_rangecheckfailure 000000018000d7bc     MSVCRT:gs_report.obj
 0004:000007c8       $pdata$__report_gsfailure  000000018000d7c8     MSVCRT:gs_report.obj
 0004:000007d4       $pdata$capture_current_context 000000018000d7d4     MSVCRT:gs_report.obj
 0004:000007e0       $pdata$capture_previous_context 000000018000d7e0     MSVCRT:gs_report.obj
 0004:000007ec       $pdata$__raise_securityfailure 000000018000d7ec     MSVCRT:gs_report.obj
 0005:00000000       __spec_table               000000018000e000     MSVCRT:_svml_ssinf4_sse2_.obj
 0005:00000560       MMSA7                      000000018000e560     MSVCRT:_svml_ssinf4_sse2_.obj
 0005:00000570       MMSA3                      000000018000e570     MSVCRT:_svml_ssinf4_sse2_.obj
 0005:00000580       MMSA5                      000000018000e580     MSVCRT:_svml_ssinf4_sse2_.obj
 0005:00000590       MMSA9                      000000018000e590     MSVCRT:_svml_ssinf4_sse2_.obj
 0005:000005a0       MMSPI3                     000000018000e5a0     MSVCRT:_svml_ssinf4_sse2_.obj
 0005:000005b0       MMSPI4                     000000018000e5b0     MSVCRT:_svml_ssinf4_sse2_.obj
 0005:000005c0       MMSPI2                     000000018000e5c0     MSVCRT:_svml_ssinf4_sse2_.obj
 0005:000005d0       MMSPI1                     000000018000e5d0     MSVCRT:_svml_ssinf4_sse2_.obj
 0005:000005e0       MMIHUGE                    000000018000e5e0     MSVCRT:_svml_ssinf4_sse2_.obj
 0005:000005f0       MMSINVPI                   000000018000e5f0     MSVCRT:_svml_ssinf4_sse2_.obj
 0005:00000600       MMIABSMASK                 000000018000e600     MSVCRT:_svml_ssinf4_sse2_.obj
 0005:00000610       dbSignMask                 000000018000e610     MSVCRT:_svml_ssinf4_sse2_.obj
 0005:00000620       PI02C_4                    000000018000e620     MSVCRT:_svml_ssinf4_sse2_.obj
 0005:00000630       PI02C_3                    000000018000e630     MSVCRT:_svml_ssinf4_sse2_.obj
 0005:00000640       PI02C_2                    000000018000e640     MSVCRT:_svml_ssinf4_sse2_.obj
 0005:00000650       PI02C_1                    000000018000e650     MSVCRT:_svml_ssinf4_sse2_.obj
 0005:00000660       PI02C_0                    000000018000e660     MSVCRT:_svml_ssinf4_sse2_.obj
 0005:00000670       dbRS                       000000018000e670     MSVCRT:_svml_ssinf4_sse2_.obj
 0005:00000680       MSK_LOW_BIT                000000018000e680     MSVCRT:_svml_ssinf4_sse2_.obj
 0005:00000690       dbiOne                     000000018000e690     MSVCRT:_svml_ssinf4_sse2_.obj
 0005:000006a0       dbInvPio2                  000000018000e6a0     MSVCRT:_svml_ssinf4_sse2_.obj
 0005:000006b0       flAllOnes                  000000018000e6b0     MSVCRT:_svml_ssinf4_sse2_.obj
 0005:000006c0       flTwoPow30                 000000018000e6c0     MSVCRT:_svml_ssinf4_sse2_.obj
 0005:000006d0       MMISIGNMASK                000000018000e6d0     MSVCRT:_svml_ssinf4_sse2_.obj
 0006:00000060       $R000000                   000000018000f060     * linker generated manifest res *
