 rcu_dylib

 Timestamp is 5c34e507 (Tue Jan  8 18:59:35 2019)

 Preferred load address is 0000000180000000

 Start         Length     Name                   Class
 0001:00000000 000000c0H .text$di                CODE
 0001:000000c0 0000fa60H .text$mn                CODE
 0001:0000fb20 00000020H .text$mn$00             CODE
 0001:0000fb40 00000390H .text$x                 CODE
 0001:0000fed0 00000087H .text$yd                CODE
 0002:00000000 00000348H .idata$5                DATA
 0002:00000348 00000010H .00cfg                  DATA
 0002:00000358 00000008H .CRT$XCA                DATA
 0002:00000360 00000018H .CRT$XCU                DATA
 0002:00000378 00000008H .CRT$XCZ                DATA
 0002:00000380 00000008H .CRT$XIA                DATA
 0002:00000388 00000008H .CRT$XIZ                DATA
 0002:00000390 00000008H .CRT$XPA                DATA
 0002:00000398 00000008H .CRT$XPZ                DATA
 0002:000003a0 00000008H .CRT$XTA                DATA
 0002:000003a8 00000008H .CRT$XTZ                DATA
 0002:000003b0 00000000H .gfids$y                DATA
 0002:000003b0 00002290H .rdata                  DATA
 0002:00002640 00000310H .rdata$zzzdbg           DATA
 0002:00002950 00000008H .rtc$IAA                DATA
 0002:00002958 00000068H .rtc$IMZ                DATA
 0002:000029c0 00000008H .rtc$IZZ                DATA
 0002:000029c8 00000008H .rtc$TAA                DATA
 0002:000029d0 00000068H .rtc$TMZ                DATA
 0002:00002a38 00000008H .rtc$TZZ                DATA
 0002:00002a40 00000dc0H .xdata                  DATA
 0002:00003800 00000188H .edata                  DATA
 0002:00003988 00000078H .idata$2                DATA
 0002:00003a00 00000018H .idata$3                DATA
 0002:00003a18 00000348H .idata$4                DATA
 0002:00003d60 00000a08H .idata$6                DATA
 0003:00000000 00000060H .data                   DATA
 0003:00000060 00000628H .bss                    DATA
 0004:00000000 00000c54H .pdata                  DATA
 0005:00000000 00000060H .rsrc$01                DATA
 0005:00000060 00000180H .rsrc$02                DATA

  Address         Publics by Value              Rva+Base               Lib:Object

 0000:00000000       __guard_longjmp_table      0000000000000000     <absolute>
 0000:00000000       ___safe_se_handler_table   0000000000000000     <absolute>
 0000:00000000       __dynamic_value_reloc_table 0000000000000000     <absolute>
 0000:00000000       __guard_fids_table         0000000000000000     <absolute>
 0000:00000000       __volatile_metadata        0000000000000000     <absolute>
 0000:00000000       __hybrid_code_map          0000000000000000     <absolute>
 0000:00000000       __guard_iat_count          0000000000000000     <absolute>
 0000:00000000       __enclave_config           0000000000000000     <absolute>
 0000:00000000       ___safe_se_handler_count   0000000000000000     <absolute>
 0000:00000000       __guard_iat_table          0000000000000000     <absolute>
 0000:00000000       __guard_longjmp_count      0000000000000000     <absolute>
 0000:00000000       __hybrid_auxiliary_iat     0000000000000000     <absolute>
 0000:00000000       __hybrid_code_map_count    0000000000000000     <absolute>
 0000:00000000       __guard_fids_count         0000000000000000     <absolute>
 0000:00000100       __guard_flags              0000000000000100     <absolute>
 0000:00000000       __ImageBase                0000000180000000     <linker-defined>
 0001:000000c0       rcu_create_allocator       00000001800010c0 f   allocator_c_api.obj
 0001:00000110       rcu_destroy_allocator      0000000180001110 f   allocator_c_api.obj
 0001:00000160       rcu_create_raycast_manager 0000000180001160 f   raycast_manager_c_api.obj
 0001:00000200       rcu_destroy_raycast_manager 0000000180001200 f   raycast_manager_c_api.obj
 0001:00000280       rcu_raycast_manager_release 0000000180001280 f   raycast_manager_c_api.obj
 0001:000002e0       rcu_raycast_manager_run    00000001800012e0 f   raycast_manager_c_api.obj
 0001:00000360       rcu_raycast_manager_setup  0000000180001360 f   raycast_manager_c_api.obj
 0001:000003f0       rcu_create_scene           00000001800013f0 f   scene_c_api.obj
 0001:00000490       rcu_destroy_scene          0000000180001490 f   scene_c_api.obj
 0001:00000510       rcu_scene_append_geometry  0000000180001510 f   scene_c_api.obj
 0001:000005e0       ??0?$Vector@I@bento@@QEAA@AEAVIAllocator@1@@Z 00000001800015e0 f i rcu_sdk:raycast_manager.obj
 0001:00000630       ??0?$Vector@URTCRayHit16@@@bento@@QEAA@AEAVIAllocator@1@@Z 0000000180001630 f i rcu_sdk:raycast_manager.obj
 0001:00000680       ??0?$Vector@URTCRayHit@@@bento@@QEAA@AEAVIAllocator@1@I@Z 0000000180001680 f i rcu_sdk:raycast_manager.obj
 0001:00000700       ??0TRaycastManager@rcu@@QEAA@AEAVIAllocator@bento@@@Z 0000000180001700 f   rcu_sdk:raycast_manager.obj
 0001:000007e0       ??1?$Vector@I@bento@@QEAA@XZ 00000001800017e0 f i rcu_sdk:raycast_manager.obj
 0001:00000820       ??1?$Vector@URTCRayHit16@@@bento@@QEAA@XZ 0000000180001820 f i rcu_sdk:raycast_manager.obj
 0001:00000860       ??1?$Vector@URTCRayHit@@@bento@@QEAA@XZ 0000000180001860 f i rcu_sdk:raycast_manager.obj
 0001:000008a0       ??1TRaycastManager@rcu@@QEAA@XZ 00000001800018a0 f   rcu_sdk:raycast_manager.obj
 0001:00000910       ?clear@?$Vector@I@bento@@QEAAXXZ 0000000180001910 f i rcu_sdk:raycast_manager.obj
 0001:00000970       ?clear@?$Vector@URTCRayHit16@@@bento@@QEAAXXZ 0000000180001970 f i rcu_sdk:raycast_manager.obj
 0001:000009d0       ?clear@?$Vector@URTCRayHit@@@bento@@QEAAXXZ 00000001800019d0 f i rcu_sdk:raycast_manager.obj
 0001:00000a30       ?error_handler@rcu@@YAXPEAXW4RTCError@@PEBD@Z 0000000180001a30 f   rcu_sdk:raycast_manager.obj
 0001:00000c40       ?free@?$Vector@I@bento@@QEAAXXZ 0000000180001c40 f i rcu_sdk:raycast_manager.obj
 0001:00000cb0       ?free@?$Vector@URTCRayHit16@@@bento@@QEAAXXZ 0000000180001cb0 f i rcu_sdk:raycast_manager.obj
 0001:00000d20       ?free@?$Vector@URTCRayHit@@@bento@@QEAAXXZ 0000000180001d20 f i rcu_sdk:raycast_manager.obj
 0001:00000d90       ?release@TRaycastManager@rcu@@QEAAXXZ 0000000180001d90 f   rcu_sdk:raycast_manager.obj
 0001:00000dd0       ?reserve@?$Vector@I@bento@@QEAAXI@Z 0000000180001dd0 f i rcu_sdk:raycast_manager.obj
 0001:00000ec0       ?reserve@?$Vector@URTCRayHit16@@@bento@@QEAAXI@Z 0000000180001ec0 f i rcu_sdk:raycast_manager.obj
 0001:00000fb0       ?reserve@?$Vector@URTCRayHit@@@bento@@QEAAXI@Z 0000000180001fb0 f i rcu_sdk:raycast_manager.obj
 0001:000010a0       ?resize@?$Vector@I@bento@@QEAAXI@Z 00000001800020a0 f i rcu_sdk:raycast_manager.obj
 0001:000012d0       ?resize@?$Vector@URTCRayHit16@@@bento@@QEAAXI@Z 00000001800022d0 f i rcu_sdk:raycast_manager.obj
 0001:00001460       ?resize@?$Vector@URTCRayHit@@@bento@@QEAAXI@Z 0000000180002460 f i rcu_sdk:raycast_manager.obj
 0001:000016e0       ?run@TRaycastManager@rcu@@QEAAXPEBUTRay@2@PEAUTIntersection@2@I@Z 00000001800026e0 f   rcu_sdk:raycast_manager.obj
 0001:00003f70       ?setup@TRaycastManager@rcu@@QEAAXAEBUTScene@2@@Z 0000000180004f70 f   rcu_sdk:raycast_manager.obj
 0001:00004190       ??0?$Vector@UIVector3@bento@@@bento@@QEAA@AEAVIAllocator@1@@Z 0000000180005190 f i rcu_sdk:scene.obj
 0001:000041e0       ??0?$Vector@UTGeometry@rcu@@@bento@@QEAA@AEAVIAllocator@1@@Z 00000001800051e0 f i rcu_sdk:scene.obj
 0001:00004230       ??0?$Vector@UVector2@bento@@@bento@@QEAA@AEAVIAllocator@1@@Z 0000000180005230 f i rcu_sdk:scene.obj
 0001:00004280       ??0?$Vector@UVector3@bento@@@bento@@QEAA@AEAVIAllocator@1@@Z 0000000180005280 f i rcu_sdk:scene.obj
 0001:000042d0       ??0TGeometry@rcu@@QEAA@AEAVIAllocator@bento@@@Z 00000001800052d0 f i rcu_sdk:scene.obj
 0001:00004370       ??0TScene@rcu@@QEAA@AEAVIAllocator@bento@@@Z 0000000180005370 f   rcu_sdk:scene.obj
 0001:000043f0       ??1?$Vector@D@bento@@QEAA@XZ 00000001800053f0 f i rcu_sdk:scene.obj
 0001:00004430       ??1?$Vector@UVector2@bento@@@bento@@QEAA@XZ 0000000180005430 f i rcu_sdk:scene.obj
 0001:00004470       ??1?$Vector@UVector3@bento@@@bento@@QEAA@XZ 0000000180005470 f i rcu_sdk:scene.obj
 0001:000044b0       ??1DynamicString@bento@@QEAA@XZ 00000001800054b0 f i rcu_sdk:scene.obj
 0001:000044f0       ?__empty_global_delete@@YAXPEAX@Z 00000001800054f0 f i rcu_sdk:scene.obj
 0001:00004500       ?__empty_global_delete@@YAXPEAX_K@Z 0000000180005500 f i rcu_sdk:scene.obj
 0001:00004510       ?append_geometry@rcu@@YAXAEAUTScene@1@IIPEAM11IPEAHIPEBM@Z 0000000180005510 f   rcu_sdk:scene.obj
 0001:000047b0       ?clear@?$Vector@D@bento@@QEAAXXZ 00000001800057b0 f i rcu_sdk:scene.obj
 0001:00004810       ?clear@?$Vector@UIVector3@bento@@@bento@@QEAAXXZ 0000000180005810 f i rcu_sdk:scene.obj
 0001:00004870       ?clear@?$Vector@UVector2@bento@@@bento@@QEAAXXZ 0000000180005870 f i rcu_sdk:scene.obj
 0001:000048d0       ?clear@?$Vector@UVector3@bento@@@bento@@QEAAXXZ 00000001800058d0 f i rcu_sdk:scene.obj
 0001:00004930       ?extend@?$Vector@UTGeometry@rcu@@@bento@@QEAAAEAUTGeometry@rcu@@XZ 0000000180005930 f i rcu_sdk:scene.obj
 0001:000049f0       ?free@?$Vector@D@bento@@QEAAXXZ 00000001800059f0 f i rcu_sdk:scene.obj
 0001:00004a60       ?free@?$Vector@UVector2@bento@@@bento@@QEAAXXZ 0000000180005a60 f i rcu_sdk:scene.obj
 0001:00004ad0       ?free@?$Vector@UVector3@bento@@@bento@@QEAAXXZ 0000000180005ad0 f i rcu_sdk:scene.obj
 0001:00004b40       ?reserve@?$Vector@UIVector3@bento@@@bento@@QEAAXI@Z 0000000180005b40 f i rcu_sdk:scene.obj
 0001:00004c30       ?reserve@?$Vector@UTGeometry@rcu@@@bento@@QEAAXI@Z 0000000180005c30 f i rcu_sdk:scene.obj
 0001:00004d20       ?reserve@?$Vector@UVector2@bento@@@bento@@QEAAXI@Z 0000000180005d20 f i rcu_sdk:scene.obj
 0001:00004e10       ?reserve@?$Vector@UVector3@bento@@@bento@@QEAAXI@Z 0000000180005e10 f i rcu_sdk:scene.obj
 0001:00004f00       ?resize@?$Vector@UIVector3@bento@@@bento@@QEAAXI@Z 0000000180005f00 f i rcu_sdk:scene.obj
 0001:00005090       ?resize@?$Vector@UVector2@bento@@@bento@@QEAAXI@Z 0000000180006090 f i rcu_sdk:scene.obj
 0001:00005220       ?resize@?$Vector@UVector3@bento@@@bento@@QEAAXI@Z 0000000180006220 f i rcu_sdk:scene.obj
 0001:000053b0       ??0SystemAllocator@bento@@QEAA@XZ 00000001800063b0 f   bento_sdk:system_allocator.obj
 0001:00005400       ??1SystemAllocator@bento@@UEAA@XZ 0000000180006400 f   bento_sdk:system_allocator.obj
 0001:00005440       ??_ESystemAllocator@bento@@UEAAPEAXI@Z 0000000180006440 f i bento_sdk:system_allocator.obj
 0001:00005440       ??_GSystemAllocator@bento@@UEAAPEAXI@Z 0000000180006440 f i bento_sdk:system_allocator.obj
 0001:000054a0       ?allocate@SystemAllocator@bento@@UEAAPEAX_K0@Z 00000001800064a0 f   bento_sdk:system_allocator.obj
 0001:000054e0       ?deallocate@SystemAllocator@bento@@UEAAXPEAX@Z 00000001800064e0 f   bento_sdk:system_allocator.obj
 0001:00005520       ?reallocate@SystemAllocator@bento@@UEAAPEAXPEAX_K11@Z 0000000180006520 f   bento_sdk:system_allocator.obj
 0001:000055d0       ?__handle_fail@bento@@YAXPEBD0H@Z 00000001800065d0 f   bento_sdk:security.obj
 0001:00005680       ?print_trace@bento@@YAXXZ  0000000180006680 f   bento_sdk:security.obj
 0001:00005690       ?default_logger@bento@@YAPEAVILogger@1@XZ 0000000180006690 f   bento_sdk:log.obj
 0001:000056a0       ?reset_logger@bento@@YAXXZ 00000001800066a0 f   bento_sdk:log.obj
 0001:000056c0       ?set_default_logger@bento@@YAXPEAVILogger@1@@Z 00000001800066c0 f   bento_sdk:log.obj
 0001:000056e0       ??$pack_bytes@I@bento@@YAXAEAV?$Vector@D@0@AEBI@Z 00000001800066e0 f i bento_sdk:dynamic_string.obj
 0001:00005720       ??$pack_vector_bytes@D@bento@@YAXAEAV?$Vector@D@0@AEBV10@@Z 0000000180006720 f i bento_sdk:dynamic_string.obj
 0001:000057b0       ??$unpack_bytes@I@bento@@YAXAEAPEBDAEAI@Z 00000001800067b0 f i bento_sdk:dynamic_string.obj
 0001:000057f0       ??$unpack_vector_bytes@D@bento@@YAXAEAPEBDAEAV?$Vector@D@0@@Z 00000001800067f0 f i bento_sdk:dynamic_string.obj
 0001:00005870       ??0?$Vector@D@bento@@QEAA@AEAVIAllocator@1@@Z 0000000180006870 f i bento_sdk:dynamic_string.obj
 0001:000058c0       ??0DynamicString@bento@@QEAA@AEAVIAllocator@1@@Z 00000001800068c0 f   bento_sdk:dynamic_string.obj
 0001:00005930       ??0DynamicString@bento@@QEAA@AEAVIAllocator@1@I@Z 0000000180006930 f   bento_sdk:dynamic_string.obj
 0001:000059c0       ??0DynamicString@bento@@QEAA@AEAVIAllocator@1@PEBD@Z 00000001800069c0 f   bento_sdk:dynamic_string.obj
 0001:00005a70       ??0DynamicString@bento@@QEAA@AEBV01@@Z 0000000180006a70 f   bento_sdk:dynamic_string.obj
 0001:00005b50       ??4DynamicString@bento@@QEAAAEAV01@AEBV01@@Z 0000000180006b50 f   bento_sdk:dynamic_string.obj
 0001:00005c00       ??4DynamicString@bento@@QEAAAEAV01@PEBD@Z 0000000180006c00 f   bento_sdk:dynamic_string.obj
 0001:00005c80       ??8DynamicString@bento@@QEBA_NPEBD@Z 0000000180006c80 f   bento_sdk:dynamic_string.obj
 0001:00005ce0       ??9DynamicString@bento@@QEBA_NPEBD@Z 0000000180006ce0 f   bento_sdk:dynamic_string.obj
 0001:00005d40       ??YDynamicString@bento@@QEAAAEAV01@AEBV01@@Z 0000000180006d40 f   bento_sdk:dynamic_string.obj
 0001:00005dc0       ??YDynamicString@bento@@QEAAAEAV01@PEBD@Z 0000000180006dc0 f   bento_sdk:dynamic_string.obj
 0001:00005e60       ?find_last_of@bento@@YAIPEBDD@Z 0000000180006e60 f   bento_sdk:dynamic_string.obj
 0001:00005ef0       ?pack_type@bento@@YAXAEAV?$Vector@D@1@AEBVDynamicString@1@@Z 0000000180006ef0 f   bento_sdk:dynamic_string.obj
 0001:00005f30       ?reserve@?$Vector@D@bento@@QEAAXI@Z 0000000180006f30 f i bento_sdk:dynamic_string.obj
 0001:00006010       ?resize@?$Vector@D@bento@@QEAAXI@Z 0000000180007010 f i bento_sdk:dynamic_string.obj
 0001:00006240       ?resize@DynamicString@bento@@QEAAXI@Z 0000000180007240 f   bento_sdk:dynamic_string.obj
 0001:000062c0       ?size@DynamicString@bento@@QEBAIXZ 00000001800072c0 f   bento_sdk:dynamic_string.obj
 0001:00006300       ?strlen32@bento@@YAIPEBD@Z 0000000180007300 f   bento_sdk:dynamic_string.obj
 0001:00006330       ?substr@string@bento@@YA?AVDynamicString@2@AEBV32@II@Z 0000000180007330 f   bento_sdk:dynamic_string.obj
 0001:000064a0       ?to_lower_case@string@bento@@YAXAEAVDynamicString@2@@Z 00000001800074a0 f   bento_sdk:dynamic_string.obj
 0001:00006560       ?unpack_type@bento@@YAXAEAPEBDAEAVDynamicString@1@@Z 0000000180007560 f   bento_sdk:dynamic_string.obj
 0001:000065a0       ??$?6U?$char_traits@D@std@@@std@@YAAEAV?$basic_ostream@DU?$char_traits@D@std@@@0@AEAV10@PEBD@Z 00000001800075a0 f i bento_sdk:matrix4.obj
 0001:000069d0       ??$fill_n@PEAMHM@std@@YAPEAMPEAMHAEBM@Z 00000001800079d0 f i bento_sdk:matrix4.obj
 0001:00006aa0       ??0_Sentry_base@?$basic_ostream@DU?$char_traits@D@std@@@std@@QEAA@AEAV12@@Z 0000000180007aa0 f i bento_sdk:matrix4.obj
 0001:00006b50       ??0sentry@?$basic_ostream@DU?$char_traits@D@std@@@std@@QEAA@AEAV12@@Z 0000000180007b50 f i bento_sdk:matrix4.obj
 0001:00006c60       ??1_Sentry_base@?$basic_ostream@DU?$char_traits@D@std@@@std@@QEAA@XZ 0000000180007c60 f i bento_sdk:matrix4.obj
 0001:00006d10       ??1sentry@?$basic_ostream@DU?$char_traits@D@std@@@std@@QEAA@XZ 0000000180007d10 f i bento_sdk:matrix4.obj
 0001:00006d60       ??6bento@@YAAEAV?$basic_ostream@DU?$char_traits@D@std@@@std@@AEAV12@AEBUMatrix4@0@@Z 0000000180007d60 f   bento_sdk:matrix4.obj
 0001:00007100       ??Dbento@@YA?AUMatrix4@0@AEBU10@0@Z 0000000180008100 f   bento_sdk:matrix4.obj
 0001:00007e80       ??Dbento@@YA?AUVector3@0@AEBUMatrix4@0@AEBU10@@Z 0000000180008e80 f   bento_sdk:matrix4.obj
 0001:000080d0       ??Dbento@@YA?AUVector4@0@AEBUMatrix4@0@AEBU10@@Z 00000001800090d0 f   bento_sdk:matrix4.obj
 0001:000083d0       ?AsPerspective@bento@@YAXAEAUMatrix4@1@MMMM@Z 00000001800093d0 f   bento_sdk:matrix4.obj
 0001:00008530       ?Det@bento@@YAMAEBUMatrix4@1@@Z 0000000180009530 f   bento_sdk:matrix4.obj
 0001:00008570       ?GetTranslate@bento@@YA?AUVector3@1@AEBUMatrix4@1@@Z 0000000180009570 f   bento_sdk:matrix4.obj
 0001:000086a0       ?Inverse3x3@bento@@YA?AUMatrix3@1@AEBUMatrix4@1@@Z 00000001800096a0 f   bento_sdk:matrix4.obj
 0001:00008ce0       ?Inverse@bento@@YA?AUMatrix4@1@AEBU21@@Z 0000000180009ce0 f   bento_sdk:matrix4.obj
 0001:0000a690       ?ResetToZero@bento@@YAXAEAUMatrix4@1@@Z 000000018000b690 f   bento_sdk:matrix4.obj
 0001:0000a6e0       ?Rotate@bento@@YA?AUMatrix4@1@MAEBUVector3@1@@Z 000000018000b6e0 f   bento_sdk:matrix4.obj
 0001:0000ad10       ?RotateXAxis@bento@@YA?AUMatrix4@1@M@Z 000000018000bd10 f   bento_sdk:matrix4.obj
 0001:0000af10       ?RotateYAxis@bento@@YA?AUMatrix4@1@M@Z 000000018000bf10 f   bento_sdk:matrix4.obj
 0001:0000b110       ?RotateZAxis@bento@@YA?AUMatrix4@1@M@Z 000000018000c110 f   bento_sdk:matrix4.obj
 0001:0000b310       ?Set@bento@@YAAEAUMatrix4@1@AEAU21@AEBU21@@Z 000000018000c310 f   bento_sdk:matrix4.obj
 0001:0000b5a0       ?SetIdentity@bento@@YAXAEAUMatrix4@1@@Z 000000018000c5a0 f   bento_sdk:matrix4.obj
 0001:0000b720       ?ToTable@bento@@YAXAEBUMatrix4@1@PEAM@Z 000000018000c720 f   bento_sdk:matrix4.obj
 0001:0000b780       ?Translate_M4@bento@@YA?AUMatrix4@1@AEBUVector3@1@@Z 000000018000c780 f   bento_sdk:matrix4.obj
 0001:0000b960       ?Translate_M4@bento@@YA?AUMatrix4@1@AEBUVector4@1@@Z 000000018000c960 f   bento_sdk:matrix4.obj
 0001:0000bb40       ?WRow@bento@@YAPEBUVector4@1@AEBUMatrix4@1@@Z 000000018000cb40 f   bento_sdk:matrix4.obj
 0001:0000bb60       ?XAxis@bento@@YA?AUVector3@1@AEBUMatrix4@1@@Z 000000018000cb60 f   bento_sdk:matrix4.obj
 0001:0000bc90       ?XRow@bento@@YAPEBUVector4@1@AEBUMatrix4@1@@Z 000000018000cc90 f   bento_sdk:matrix4.obj
 0001:0000bcb0       ?YAxis@bento@@YA?AUVector3@1@AEBUMatrix4@1@@Z 000000018000ccb0 f   bento_sdk:matrix4.obj
 0001:0000bde0       ?YRow@bento@@YAPEBUVector4@1@AEBUMatrix4@1@@Z 000000018000cde0 f   bento_sdk:matrix4.obj
 0001:0000be00       ?ZAxis@bento@@YA?AUVector3@1@AEBUMatrix4@1@@Z 000000018000ce00 f   bento_sdk:matrix4.obj
 0001:0000bf30       ?ZRow@bento@@YAPEBUVector4@1@AEBUMatrix4@1@@Z 000000018000cf30 f   bento_sdk:matrix4.obj
 0001:0000bf50       ?matrix4@bento@@YAXAEAUMatrix4@1@PEAM@Z 000000018000cf50 f   bento_sdk:matrix4.obj
 0001:0000bfa0       ?transpose@bento@@YA?AUMatrix4@1@AEBU21@@Z 000000018000cfa0 f   bento_sdk:matrix4.obj
 0001:0000c410       ??0IAllocator@bento@@QEAA@XZ 000000018000d410 f   bento_sdk:allocator.obj
 0001:0000c430       ??1IAllocator@bento@@UEAA@XZ 000000018000d430 f   bento_sdk:allocator.obj
 0001:0000c450       ??_EIAllocator@bento@@UEAAPEAXI@Z 000000018000d450 f i bento_sdk:allocator.obj
 0001:0000c450       ??_GIAllocator@bento@@UEAAPEAXI@Z 000000018000d450 f i bento_sdk:allocator.obj
 0001:0000c4b0       ??0SystemLogger@bento@@QEAA@XZ 000000018000d4b0 f   bento_sdk:system_logger.obj
 0001:0000c4e0       ??1SystemLogger@bento@@UEAA@XZ 000000018000d4e0 f   bento_sdk:system_logger.obj
 0001:0000c510       ??_EILogger@bento@@UEAAPEAXI@Z 000000018000d510 f i bento_sdk:system_logger.obj
 0001:0000c510       ??_GILogger@bento@@UEAAPEAXI@Z 000000018000d510 f i bento_sdk:system_logger.obj
 0001:0000c570       ??_GSystemLogger@bento@@UEAAPEAXI@Z 000000018000d570 f i bento_sdk:system_logger.obj
 0001:0000c570       ??_ESystemLogger@bento@@UEAAPEAXI@Z 000000018000d570 f i bento_sdk:system_logger.obj
 0001:0000c5d0       ?level_to_string@bento@@YAPEBDW4Type@LogLevel@1@@Z 000000018000d5d0 f   bento_sdk:system_logger.obj
 0001:0000c640       ?log@SystemLogger@bento@@UEAAXW4Type@LogLevel@2@PEBD1@Z 000000018000d640 f   bento_sdk:system_logger.obj
 0001:0000c6e0       ?pack_buffer@bento@@YAXAEAV?$Vector@D@1@IPEBD@Z 000000018000d6e0 f   bento_sdk:stream.obj
 0001:0000c770       ?unpack_buffer@bento@@YAXAEAPEBDIPEAD@Z 000000018000d770 f   bento_sdk:stream.obj
 0001:0000c7d1       rtcNewDevice               000000018000d7d1 f   embree3:embree3.dll
 0001:0000c7d7       rtcReleaseDevice           000000018000d7d7 f   embree3:embree3.dll
 0001:0000c7dd       rtcGetDeviceError          000000018000d7dd f   embree3:embree3.dll
 0001:0000c7e3       rtcSetDeviceErrorFunction  000000018000d7e3 f   embree3:embree3.dll
 0001:0000c7e9       rtcNewGeometry             000000018000d7e9 f   embree3:embree3.dll
 0001:0000c7ef       rtcReleaseGeometry         000000018000d7ef f   embree3:embree3.dll
 0001:0000c7f5       rtcCommitGeometry          000000018000d7f5 f   embree3:embree3.dll
 0001:0000c7fb       rtcSetNewGeometryBuffer    000000018000d7fb f   embree3:embree3.dll
 0001:0000c801       rtcNewScene                000000018000d801 f   embree3:embree3.dll
 0001:0000c807       rtcReleaseScene            000000018000d807 f   embree3:embree3.dll
 0001:0000c80d       rtcAttachGeometry          000000018000d80d f   embree3:embree3.dll
 0001:0000c813       rtcCommitScene             000000018000d813 f   embree3:embree3.dll
 0001:0000c819       rtcIntersect1              000000018000d819 f   embree3:embree3.dll
 0001:0000c81f       rtcIntersect16             000000018000d81f f   embree3:embree3.dll
 0001:0000c825       ?good@ios_base@std@@QEBA_NXZ 000000018000d825 f   msvcprtd:MSVCP140D.dll
 0001:0000c82b       ?flags@ios_base@std@@QEBAHXZ 000000018000d82b f   msvcprtd:MSVCP140D.dll
 0001:0000c831       ?width@ios_base@std@@QEBA_JXZ 000000018000d831 f   msvcprtd:MSVCP140D.dll
 0001:0000c837       ?width@ios_base@std@@QEAA_J_J@Z 000000018000d837 f   msvcprtd:MSVCP140D.dll
 0001:0000c83d       ?sputc@?$basic_streambuf@DU?$char_traits@D@std@@@std@@QEAAHD@Z 000000018000d83d f   msvcprtd:MSVCP140D.dll
 0001:0000c843       ?sputn@?$basic_streambuf@DU?$char_traits@D@std@@@std@@QEAA_JPEBD_J@Z 000000018000d843 f   msvcprtd:MSVCP140D.dll
 0001:0000c849       ?setstate@?$basic_ios@DU?$char_traits@D@std@@@std@@QEAAXH_N@Z 000000018000d849 f   msvcprtd:MSVCP140D.dll
 0001:0000c84f       ?tie@?$basic_ios@DU?$char_traits@D@std@@@std@@QEBAPEAV?$basic_ostream@DU?$char_traits@D@std@@@2@XZ 000000018000d84f f   msvcprtd:MSVCP140D.dll
 0001:0000c855       ?rdbuf@?$basic_ios@DU?$char_traits@D@std@@@std@@QEBAPEAV?$basic_streambuf@DU?$char_traits@D@std@@@2@XZ 000000018000d855 f   msvcprtd:MSVCP140D.dll
 0001:0000c85b       ?fill@?$basic_ios@DU?$char_traits@D@std@@@std@@QEBADXZ 000000018000d85b f   msvcprtd:MSVCP140D.dll
 0001:0000c861       ?_Osfx@?$basic_ostream@DU?$char_traits@D@std@@@std@@QEAAXXZ 000000018000d861 f   msvcprtd:MSVCP140D.dll
 0001:0000c867       ??6?$basic_ostream@DU?$char_traits@D@std@@@std@@QEAAAEAV01@M@Z 000000018000d867 f   msvcprtd:MSVCP140D.dll
 0001:0000c86d       ?flush@?$basic_ostream@DU?$char_traits@D@std@@@std@@QEAAAEAV12@XZ 000000018000d86d f   msvcprtd:MSVCP140D.dll
 0001:0000c880       ??$__crt_fast_decode_pointer@PEAP6AXXZ@@YAPEAP6AXXZQEAP6AXXZ@Z 000000018000d880 f i MSVCRTD:utility.obj
 0001:0000c8c0       ??$__crt_fast_encode_pointer@PEAP6AXXZ@@YAPEAP6AXXZQEAP6AXXZ@Z 000000018000d8c0 f i MSVCRTD:utility.obj
 0001:0000c900       ?__crt_rotate_pointer_value@@YA_K_KH@Z 000000018000d900 f i MSVCRTD:utility.obj
 0001:0000c920       ?configure_argv@__scrt_narrow_argv_policy@@SAHXZ 000000018000d920 f i MSVCRTD:utility.obj
 0001:0000ca10       ?initialize_environment@__scrt_narrow_environment_policy@@SAHXZ 000000018000da10 f i MSVCRTD:utility.obj
 0001:0000cab0       NtCurrentTeb               000000018000dab0 f i MSVCRTD:utility.obj
 0001:0000cac0       __scrt_acquire_startup_lock 000000018000dac0 f   MSVCRTD:utility.obj
 0001:0000cb30       __scrt_dllmain_after_initialize_c 000000018000db30 f   MSVCRTD:utility.obj
 0001:0000cb60       __scrt_dllmain_before_initialize_c 000000018000db60 f   MSVCRTD:utility.obj
 0001:0000cb80       __scrt_dllmain_crt_thread_attach 000000018000db80 f   MSVCRTD:utility.obj
 0001:0000cbb0       __scrt_dllmain_crt_thread_detach 000000018000dbb0 f   MSVCRTD:utility.obj
 0001:0000cbd0       __scrt_dllmain_exception_filter 000000018000dbd0 f   MSVCRTD:utility.obj
 0001:0000cc30       __scrt_dllmain_uninitialize_c 000000018000dc30 f   MSVCRTD:utility.obj
 0001:0000cc60       __scrt_dllmain_uninitialize_critical 000000018000dc60 f   MSVCRTD:utility.obj
 0001:0000cc80       __scrt_initialize_crt      000000018000dc80 f   MSVCRTD:utility.obj
 0001:0000ccd0       __scrt_initialize_onexit_tables 000000018000dcd0 f   MSVCRTD:utility.obj
 0001:0000cde0       __scrt_is_nonwritable_in_current_image 000000018000dde0 f   MSVCRTD:utility.obj
 0001:0000ce70       __scrt_release_startup_lock 000000018000de70 f   MSVCRTD:utility.obj
 0001:0000cea0       __scrt_uninitialize_crt    000000018000dea0 f   MSVCRTD:utility.obj
 0001:0000cee0       _onexit                    000000018000dee0 f   MSVCRTD:utility.obj
 0001:0000cf70       at_quick_exit              000000018000df70 f   MSVCRTD:utility.obj
 0001:0000cfc0       atexit                     000000018000dfc0 f   MSVCRTD:utility.obj
 0001:0000d000       _CRT_RTC_INIT              000000018000e000 f   MSVCRTD:_init_.obj
 0001:0000d010       _CRT_RTC_INITW             000000018000e010 f   MSVCRTD:_init_.obj
 0001:0000d020       _RTC_InitBase              000000018000e020 f   MSVCRTD:_init_.obj
 0001:0000d060       _RTC_Shutdown              000000018000e060 f   MSVCRTD:_init_.obj
 0001:0000d480       _CRT_INIT                  000000018000e480 f   MSVCRTD:dll_dllmain.obj
 0001:0000d4b0       _DllMainCRTStartup         000000018000e4b0 f   MSVCRTD:dll_dllmain.obj
 0001:0000d4f0       _RTC_AllocaHelper          000000018000e4f0 f   MSVCRTD:_stack_.obj
 0001:0000d530       _RTC_CheckStackVars        000000018000e530 f   MSVCRTD:_stack_.obj
 0001:0000d5c0       _RTC_CheckStackVars2       000000018000e5c0 f   MSVCRTD:_stack_.obj
 0001:0000d6d0       __GSHandlerCheck           000000018000e6d0 f   MSVCRTD:_gshandler_.obj
 0001:0000d710       __GSHandlerCheckCommon     000000018000e710 f   MSVCRTD:_gshandler_.obj
 0001:0000d820       __security_check_cookie    000000018000e820 f   MSVCRTD:_amdsecgs_.obj
 0001:0000d850       ??3@YAXPEAX_K@Z            000000018000e850 f   MSVCRTD:delete_scalar_size.obj
 0001:0000d870       __isa_available_init       000000018000e870 f   MSVCRTD:_cpu_disp_.obj
 0001:0000dbe0       _get_startup_argv_mode     000000018000ebe0 f   MSVCRTD:argv_mode.obj
 0001:0000dbf0       __scrt_is_ucrt_dll_in_use  000000018000ebf0 f   MSVCRTD:ucrt_detection.obj
 0001:0000dc20       __crt_debugger_hook        000000018000ec20 f   MSVCRTD:utility_desktop.obj
 0001:0000dc30       __scrt_fastfail            000000018000ec30 f   MSVCRTD:utility_desktop.obj
 0001:0000ddd0       __scrt_get_show_window_mode 000000018000edd0 f   MSVCRTD:utility_desktop.obj
 0001:0000de30       __scrt_initialize_mta      000000018000ee30 f   MSVCRTD:utility_desktop.obj
 0001:0000de40       __scrt_initialize_winrt    000000018000ee40 f   MSVCRTD:utility_desktop.obj
 0001:0000de50       __scrt_is_managed_app      000000018000ee50 f   MSVCRTD:utility_desktop.obj
 0001:0000df00       __scrt_set_unhandled_exception_filter 000000018000ef00 f   MSVCRTD:utility_desktop.obj
 0001:0000df20       __scrt_stub_for_initialize_mta 000000018000ef20 f   MSVCRTD:utility_desktop.obj
 0001:0000df20       __scrt_exe_initialize_mta  000000018000ef20 f   MSVCRTD:utility_desktop.obj
 0001:0000df30       __scrt_unhandled_exception_filter 000000018000ef30 f   MSVCRTD:utility_desktop.obj
 0001:0000dfb0       _guard_check_icall_nop     000000018000efb0 f i MSVCRTD:guard_support.obj
 0001:0000dfc0       ReadNoFence64              000000018000efc0 f i MSVCRTD:guard_support.obj
 0001:0000dfe0       ReadPointerNoFence         000000018000efe0 f i MSVCRTD:guard_support.obj
 0001:0000e000       _guard_icall_checks_enforced 000000018000f000 f i MSVCRTD:guard_support.obj
 0001:0000e040       _guard_rf_checks_enforced  000000018000f040 f i MSVCRTD:guard_support.obj
 0001:0000e050       ?_RTC_GetErrorFunc@@YAP6AHHPEBDH00ZZPEBX@Z 000000018000f050 f   MSVCRTD:_userapi_.obj
 0001:0000e060       ?_RTC_GetErrorFuncW@@YAP6AHHPEB_WH00ZZPEBX@Z 000000018000f060 f   MSVCRTD:_userapi_.obj
 0001:0000e070       _RTC_GetErrDesc            000000018000f070 f   MSVCRTD:_userapi_.obj
 0001:0000e090       _RTC_NumErrors             000000018000f090 f   MSVCRTD:_userapi_.obj
 0001:0000e0a0       _RTC_SetErrorFunc          000000018000f0a0 f   MSVCRTD:_userapi_.obj
 0001:0000e0c0       _RTC_SetErrorFuncW         000000018000f0c0 f   MSVCRTD:_userapi_.obj
 0001:0000e0e0       _RTC_SetErrorType          000000018000f0e0 f   MSVCRTD:_userapi_.obj
 0001:0000e1c0       __security_init_cookie     000000018000f1c0 f   MSVCRTD:gs_support.obj
 0001:0000e240       DllMain                    000000018000f240 f   MSVCRTD:dll_dllmain_stub.obj
 0001:0000e280       ?__scrt_initialize_type_info@@YAXXZ 000000018000f280 f   MSVCRTD:tncleanup.obj
 0001:0000e2a0       ?__scrt_uninitialize_type_info@@YAXXZ 000000018000f2a0 f   MSVCRTD:tncleanup.obj
 0001:0000e2c0       __local_stdio_printf_options 000000018000f2c0 f i MSVCRTD:default_local_stdio_options.obj
 0001:0000e2d0       __local_stdio_scanf_options 000000018000f2d0 f i MSVCRTD:default_local_stdio_options.obj
 0001:0000e2e0       __scrt_initialize_default_local_stdio_options 000000018000f2e0 f   MSVCRTD:default_local_stdio_options.obj
 0001:0000e330       __scrt_get_dyn_tls_init_callback 000000018000f330 f   MSVCRTD:dyn_tls_init.obj
 0001:0000e340       _RTC_Initialize            000000018000f340 f   MSVCRTD:_initsect_.obj
 0001:0000e390       _RTC_Terminate             000000018000f390 f   MSVCRTD:_initsect_.obj
 0001:0000e470       ?_RTC_AllocaFailure@@YAXPEAXPEAU_RTC_ALLOCA_NODE@@H@Z 000000018000f470 f   MSVCRTD:_error_.obj
 0001:0000e5d0       ?_RTC_Failure@@YAXPEAXH@Z  000000018000f5d0 f   MSVCRTD:_error_.obj
 0001:0000e620       ?_RTC_StackFailure@@YAXPEAXPEBD@Z 000000018000f620 f   MSVCRTD:_error_.obj
 0001:0000ea50       _RTC_UninitUse             000000018000fa50 f   MSVCRTD:_error_.obj
 0001:0000eb20       _vsprintf_s_l              000000018000fb20 f i MSVCRTD:_error_.obj
 0001:0000eb90       sprintf_s                  000000018000fb90 f i MSVCRTD:_error_.obj
 0001:0000ebc0       __raise_securityfailure    000000018000fbc0 f   MSVCRTD:gs_report.obj
 0001:0000ec00       __report_gsfailure         000000018000fc00 f   MSVCRTD:gs_report.obj
 0001:0000ece0       __report_rangecheckfailure 000000018000fce0 f   MSVCRTD:gs_report.obj
 0001:0000ed00       __report_securityfailure   000000018000fd00 f   MSVCRTD:gs_report.obj
 0001:0000eda0       __report_securityfailureEx 000000018000fda0 f   MSVCRTD:gs_report.obj
 0001:0000f010       ??3@YAXPEAX@Z              0000000180010010 f   MSVCRTD:delete_scalar.obj
 0001:0000f540       ?_RTC_GetSrcLine@@YAHPEAEPEA_WKPEAH1K@Z 0000000180010540 f   MSVCRTD:_pdblkup_.obj
 0001:0000f905       _vcomp_for_static_end      0000000180010905 f   VCOMPD:VCOMP140D.DLL
 0001:0000f90b       _vcomp_for_static_simple_init 000000018001090b f   VCOMPD:VCOMP140D.DLL
 0001:0000f911       _vcomp_fork                0000000180010911 f   VCOMPD:VCOMP140D.DLL
 0001:0000f920       memcpy                     0000000180010920 f   vcruntimed:VCRUNTIME140D.dll
 0001:0000f926       __CxxFrameHandler3         0000000180010926 f   vcruntimed:VCRUNTIME140D.dll
 0001:0000f92c       __std_terminate            000000018001092c f   vcruntimed:VCRUNTIME140D.dll
 0001:0000f932       _purecall                  0000000180010932 f   vcruntimed:VCRUNTIME140D.dll
 0001:0000f938       __C_specific_handler       0000000180010938 f   vcruntimed:VCRUNTIME140D.dll
 0001:0000f93e       __std_type_info_destroy_list 000000018001093e f   vcruntimed:VCRUNTIME140D.dll
 0001:0000f944       __C_specific_handler_noexcept 0000000180010944 f   vcruntimed:VCRUNTIME140D.dll
 0001:0000f94a       __vcrt_GetModuleFileNameW  000000018001094a f   vcruntimed:VCRUNTIME140D.dll
 0001:0000f950       __vcrt_GetModuleHandleW    0000000180010950 f   vcruntimed:VCRUNTIME140D.dll
 0001:0000f956       __vcrt_LoadLibraryExW      0000000180010956 f   vcruntimed:VCRUNTIME140D.dll
 0001:0000f95c       _aligned_free              000000018001095c f   ucrtd:ucrtbased.dll
 0001:0000f962       _aligned_malloc            0000000180010962 f   ucrtd:ucrtbased.dll
 0001:0000f968       _wassert                   0000000180010968 f   ucrtd:ucrtbased.dll
 0001:0000f96e       tolower                    000000018001096e f   ucrtd:ucrtbased.dll
 0001:0000f974       strcmp                     0000000180010974 f   ucrtd:ucrtbased.dll
 0001:0000f97a       strlen                     000000018001097a f   ucrtd:ucrtbased.dll
 0001:0000f980       cosf                       0000000180010980 f   ucrtd:ucrtbased.dll
 0001:0000f986       sinf                       0000000180010986 f   ucrtd:ucrtbased.dll
 0001:0000f98c       sqrtf                      000000018001098c f   ucrtd:ucrtbased.dll
 0001:0000f992       tanf                       0000000180010992 f   ucrtd:ucrtbased.dll
 0001:0000f998       _seh_filter_dll            0000000180010998 f   ucrtd:ucrtbased.dll
 0001:0000f99e       _configure_narrow_argv     000000018001099e f   ucrtd:ucrtbased.dll
 0001:0000f9a4       _initialize_narrow_environment 00000001800109a4 f   ucrtd:ucrtbased.dll
 0001:0000f9aa       _initialize_onexit_table   00000001800109aa f   ucrtd:ucrtbased.dll
 0001:0000f9b0       _register_onexit_function  00000001800109b0 f   ucrtd:ucrtbased.dll
 0001:0000f9b6       _execute_onexit_table      00000001800109b6 f   ucrtd:ucrtbased.dll
 0001:0000f9bc       _crt_atexit                00000001800109bc f   ucrtd:ucrtbased.dll
 0001:0000f9c2       _crt_at_quick_exit         00000001800109c2 f   ucrtd:ucrtbased.dll
 0001:0000f9c8       _cexit                     00000001800109c8 f   ucrtd:ucrtbased.dll
 0001:0000f9ce       _CrtDbgReport              00000001800109ce f   ucrtd:ucrtbased.dll
 0001:0000f9d4       _CrtDbgReportW             00000001800109d4 f   ucrtd:ucrtbased.dll
 0001:0000f9da       _initterm                  00000001800109da f   ucrtd:ucrtbased.dll
 0001:0000f9e0       _initterm_e                00000001800109e0 f   ucrtd:ucrtbased.dll
 0001:0000f9e6       terminate                  00000001800109e6 f   ucrtd:ucrtbased.dll
 0001:0000f9ec       strcpy_s                   00000001800109ec f   ucrtd:ucrtbased.dll
 0001:0000f9f2       strcat_s                   00000001800109f2 f   ucrtd:ucrtbased.dll
 0001:0000f9f8       __stdio_common_vsprintf_s  00000001800109f8 f   ucrtd:ucrtbased.dll
 0001:0000f9fe       _free_dbg                  00000001800109fe f   ucrtd:ucrtbased.dll
 0001:0000fa04       _wmakepath_s               0000000180010a04 f   ucrtd:ucrtbased.dll
 0001:0000fa0a       _wsplitpath_s              0000000180010a0a f   ucrtd:ucrtbased.dll
 0001:0000fa10       wcscpy_s                   0000000180010a10 f   ucrtd:ucrtbased.dll
 0001:0000fa16       RtlCaptureContext          0000000180010a16 f   kernel32:KERNEL32.dll
 0001:0000fa1c       RtlLookupFunctionEntry     0000000180010a1c f   kernel32:KERNEL32.dll
 0001:0000fa22       RtlVirtualUnwind           0000000180010a22 f   kernel32:KERNEL32.dll
 0001:0000fa28       IsDebuggerPresent          0000000180010a28 f   kernel32:KERNEL32.dll
 0001:0000fa2e       UnhandledExceptionFilter   0000000180010a2e f   kernel32:KERNEL32.dll
 0001:0000fa34       SetUnhandledExceptionFilter 0000000180010a34 f   kernel32:KERNEL32.dll
 0001:0000fa3a       GetStartupInfoW            0000000180010a3a f   kernel32:KERNEL32.dll
 0001:0000fa40       IsProcessorFeaturePresent  0000000180010a40 f   kernel32:KERNEL32.dll
 0001:0000fa46       GetModuleHandleW           0000000180010a46 f   kernel32:KERNEL32.dll
 0001:0000fa4c       QueryPerformanceCounter    0000000180010a4c f   kernel32:KERNEL32.dll
 0001:0000fa52       GetCurrentProcessId        0000000180010a52 f   kernel32:KERNEL32.dll
 0001:0000fa58       GetCurrentThreadId         0000000180010a58 f   kernel32:KERNEL32.dll
 0001:0000fa5e       GetSystemTimeAsFileTime    0000000180010a5e f   kernel32:KERNEL32.dll
 0001:0000fa64       DisableThreadLibraryCalls  0000000180010a64 f   kernel32:KERNEL32.dll
 0001:0000fa6a       InitializeSListHead        0000000180010a6a f   kernel32:KERNEL32.dll
 0001:0000fa70       RaiseException             0000000180010a70 f   kernel32:KERNEL32.dll
 0001:0000fa76       MultiByteToWideChar        0000000180010a76 f   kernel32:KERNEL32.dll
 0001:0000fa7c       WideCharToMultiByte        0000000180010a7c f   kernel32:KERNEL32.dll
 0001:0000fa82       GetCurrentProcess          0000000180010a82 f   kernel32:KERNEL32.dll
 0001:0000fa88       TerminateProcess           0000000180010a88 f   kernel32:KERNEL32.dll
 0001:0000fa8e       GetLastError               0000000180010a8e f   kernel32:KERNEL32.dll
 0001:0000fa94       HeapAlloc                  0000000180010a94 f   kernel32:KERNEL32.dll
 0001:0000fa9a       HeapFree                   0000000180010a9a f   kernel32:KERNEL32.dll
 0001:0000faa0       GetProcessHeap             0000000180010aa0 f   kernel32:KERNEL32.dll
 0001:0000faa6       VirtualQuery               0000000180010aa6 f   kernel32:KERNEL32.dll
 0001:0000faac       FreeLibrary                0000000180010aac f   kernel32:KERNEL32.dll
 0001:0000fab2       GetProcAddress             0000000180010ab2 f   kernel32:KERNEL32.dll
 0001:0000fac0       __scrt_stub_for_acrt_initialize 0000000180010ac0 f   MSVCRTD:ucrt_stubs.obj
 0001:0000fac0       __vcrt_initialize          0000000180010ac0 f   MSVCRTD:ucrt_stubs.obj
 0001:0000fac0       __acrt_initialize          0000000180010ac0 f   MSVCRTD:ucrt_stubs.obj
 0001:0000fad0       __vcrt_thread_attach       0000000180010ad0 f   MSVCRTD:ucrt_stubs.obj
 0001:0000fad0       __scrt_stub_for_acrt_thread_attach 0000000180010ad0 f   MSVCRTD:ucrt_stubs.obj
 0001:0000fad0       __acrt_thread_attach       0000000180010ad0 f   MSVCRTD:ucrt_stubs.obj
 0001:0000fae0       __vcrt_thread_detach       0000000180010ae0 f   MSVCRTD:ucrt_stubs.obj
 0001:0000fae0       __acrt_thread_detach       0000000180010ae0 f   MSVCRTD:ucrt_stubs.obj
 0001:0000fae0       __scrt_stub_for_acrt_thread_detach 0000000180010ae0 f   MSVCRTD:ucrt_stubs.obj
 0001:0000faf0       __acrt_uninitialize        0000000180010af0 f   MSVCRTD:ucrt_stubs.obj
 0001:0000faf0       __scrt_stub_for_acrt_uninitialize 0000000180010af0 f   MSVCRTD:ucrt_stubs.obj
 0001:0000faf0       __vcrt_uninitialize        0000000180010af0 f   MSVCRTD:ucrt_stubs.obj
 0001:0000fb00       __vcrt_uninitialize_critical 0000000180010b00 f   MSVCRTD:ucrt_stubs.obj
 0001:0000fb00       __acrt_uninitialize_critical 0000000180010b00 f   MSVCRTD:ucrt_stubs.obj
 0001:0000fb00       __scrt_stub_for_acrt_uninitialize_critical 0000000180010b00 f   MSVCRTD:ucrt_stubs.obj
 0001:0000fb10       _is_c_termination_complete 0000000180010b10 f   MSVCRTD:ucrt_stubs.obj
 0001:0000fb10       __scrt_stub_for_is_c_termination_complete 0000000180010b10 f   MSVCRTD:ucrt_stubs.obj
 0001:0000fb30       _guard_dispatch_icall_nop  0000000180010b30 f   MSVCRTD:_guard_dispatch_.obj
 0002:00000000       __imp_RtlCaptureContext    0000000180011000     kernel32:KERNEL32.dll
 0002:00000008       __imp_RtlLookupFunctionEntry 0000000180011008     kernel32:KERNEL32.dll
 0002:00000010       __imp_RtlVirtualUnwind     0000000180011010     kernel32:KERNEL32.dll
 0002:00000018       __imp_IsDebuggerPresent    0000000180011018     kernel32:KERNEL32.dll
 0002:00000020       __imp_UnhandledExceptionFilter 0000000180011020     kernel32:KERNEL32.dll
 0002:00000028       __imp_SetUnhandledExceptionFilter 0000000180011028     kernel32:KERNEL32.dll
 0002:00000030       __imp_GetStartupInfoW      0000000180011030     kernel32:KERNEL32.dll
 0002:00000038       __imp_IsProcessorFeaturePresent 0000000180011038     kernel32:KERNEL32.dll
 0002:00000040       __imp_GetModuleHandleW     0000000180011040     kernel32:KERNEL32.dll
 0002:00000048       __imp_QueryPerformanceCounter 0000000180011048     kernel32:KERNEL32.dll
 0002:00000050       __imp_GetCurrentProcessId  0000000180011050     kernel32:KERNEL32.dll
 0002:00000058       __imp_GetCurrentThreadId   0000000180011058     kernel32:KERNEL32.dll
 0002:00000060       __imp_GetSystemTimeAsFileTime 0000000180011060     kernel32:KERNEL32.dll
 0002:00000068       __imp_DisableThreadLibraryCalls 0000000180011068     kernel32:KERNEL32.dll
 0002:00000070       __imp_GetProcAddress       0000000180011070     kernel32:KERNEL32.dll
 0002:00000078       __imp_InitializeSListHead  0000000180011078     kernel32:KERNEL32.dll
 0002:00000080       __imp_RaiseException       0000000180011080     kernel32:KERNEL32.dll
 0002:00000088       __imp_MultiByteToWideChar  0000000180011088     kernel32:KERNEL32.dll
 0002:00000090       __imp_WideCharToMultiByte  0000000180011090     kernel32:KERNEL32.dll
 0002:00000098       __imp_GetCurrentProcess    0000000180011098     kernel32:KERNEL32.dll
 0002:000000a0       __imp_TerminateProcess     00000001800110a0     kernel32:KERNEL32.dll
 0002:000000a8       __imp_GetLastError         00000001800110a8     kernel32:KERNEL32.dll
 0002:000000b0       __imp_HeapAlloc            00000001800110b0     kernel32:KERNEL32.dll
 0002:000000b8       __imp_HeapFree             00000001800110b8     kernel32:KERNEL32.dll
 0002:000000c0       __imp_GetProcessHeap       00000001800110c0     kernel32:KERNEL32.dll
 0002:000000c8       __imp_VirtualQuery         00000001800110c8     kernel32:KERNEL32.dll
 0002:000000d0       __imp_FreeLibrary          00000001800110d0     kernel32:KERNEL32.dll
 0002:000000d8       \177KERNEL32_NULL_THUNK_DATA 00000001800110d8     kernel32:KERNEL32.dll
 0002:000000e0       __imp_?cout@std@@3V?$basic_ostream@DU?$char_traits@D@std@@@1@A 00000001800110e0     msvcprtd:MSVCP140D.dll
 0002:000000e8       __imp_?good@ios_base@std@@QEBA_NXZ 00000001800110e8     msvcprtd:MSVCP140D.dll
 0002:000000f0       __imp_?flags@ios_base@std@@QEBAHXZ 00000001800110f0     msvcprtd:MSVCP140D.dll
 0002:000000f8       __imp_?width@ios_base@std@@QEBA_JXZ 00000001800110f8     msvcprtd:MSVCP140D.dll
 0002:00000100       __imp_?width@ios_base@std@@QEAA_J_J@Z 0000000180011100     msvcprtd:MSVCP140D.dll
 0002:00000108       __imp_?sputc@?$basic_streambuf@DU?$char_traits@D@std@@@std@@QEAAHD@Z 0000000180011108     msvcprtd:MSVCP140D.dll
 0002:00000110       __imp_?sputn@?$basic_streambuf@DU?$char_traits@D@std@@@std@@QEAA_JPEBD_J@Z 0000000180011110     msvcprtd:MSVCP140D.dll
 0002:00000118       __imp_?setstate@?$basic_ios@DU?$char_traits@D@std@@@std@@QEAAXH_N@Z 0000000180011118     msvcprtd:MSVCP140D.dll
 0002:00000120       __imp_?flush@?$basic_ostream@DU?$char_traits@D@std@@@std@@QEAAAEAV12@XZ 0000000180011120     msvcprtd:MSVCP140D.dll
 0002:00000128       __imp_?tie@?$basic_ios@DU?$char_traits@D@std@@@std@@QEBAPEAV?$basic_ostream@DU?$char_traits@D@std@@@2@XZ 0000000180011128     msvcprtd:MSVCP140D.dll
 0002:00000130       __imp_?rdbuf@?$basic_ios@DU?$char_traits@D@std@@@std@@QEBAPEAV?$basic_streambuf@DU?$char_traits@D@std@@@2@XZ 0000000180011130     msvcprtd:MSVCP140D.dll
 0002:00000138       __imp_?fill@?$basic_ios@DU?$char_traits@D@std@@@std@@QEBADXZ 0000000180011138     msvcprtd:MSVCP140D.dll
 0002:00000140       __imp_?_Osfx@?$basic_ostream@DU?$char_traits@D@std@@@std@@QEAAXXZ 0000000180011140     msvcprtd:MSVCP140D.dll
 0002:00000148       __imp_??6?$basic_ostream@DU?$char_traits@D@std@@@std@@QEAAAEAV01@M@Z 0000000180011148     msvcprtd:MSVCP140D.dll
 0002:00000150       \177MSVCP140D_NULL_THUNK_DATA 0000000180011150     msvcprtd:MSVCP140D.dll
 0002:00000158       __imp__vcomp_fork          0000000180011158     VCOMPD:VCOMP140D.DLL
 0002:00000160       __imp__vcomp_for_static_end 0000000180011160     VCOMPD:VCOMP140D.DLL
 0002:00000168       __imp__vcomp_for_static_simple_init 0000000180011168     VCOMPD:VCOMP140D.DLL
 0002:00000170       \177VCOMP140D_NULL_THUNK_DATA 0000000180011170     VCOMPD:VCOMP140D.DLL
 0002:00000178       __imp___C_specific_handler 0000000180011178     vcruntimed:VCRUNTIME140D.dll
 0002:00000180       __imp___vcrt_GetModuleFileNameW 0000000180011180     vcruntimed:VCRUNTIME140D.dll
 0002:00000188       __imp___CxxFrameHandler3   0000000180011188     vcruntimed:VCRUNTIME140D.dll
 0002:00000190       __imp_memcpy               0000000180011190     vcruntimed:VCRUNTIME140D.dll
 0002:00000198       __imp___vcrt_GetModuleHandleW 0000000180011198     vcruntimed:VCRUNTIME140D.dll
 0002:000001a0       __imp___std_type_info_destroy_list 00000001800111a0     vcruntimed:VCRUNTIME140D.dll
 0002:000001a8       __imp___C_specific_handler_noexcept 00000001800111a8     vcruntimed:VCRUNTIME140D.dll
 0002:000001b0       __imp___vcrt_LoadLibraryExW 00000001800111b0     vcruntimed:VCRUNTIME140D.dll
 0002:000001b8       __imp__purecall            00000001800111b8     vcruntimed:VCRUNTIME140D.dll
 0002:000001c0       __imp___std_terminate      00000001800111c0     vcruntimed:VCRUNTIME140D.dll
 0002:000001c8       \177VCRUNTIME140D_NULL_THUNK_DATA 00000001800111c8     vcruntimed:VCRUNTIME140D.dll
 0002:000001d0       __imp_rtcIntersect16       00000001800111d0     embree3:embree3.dll
 0002:000001d8       __imp_rtcIntersect1        00000001800111d8     embree3:embree3.dll
 0002:000001e0       __imp_rtcCommitScene       00000001800111e0     embree3:embree3.dll
 0002:000001e8       __imp_rtcAttachGeometry    00000001800111e8     embree3:embree3.dll
 0002:000001f0       __imp_rtcReleaseScene      00000001800111f0     embree3:embree3.dll
 0002:000001f8       __imp_rtcNewScene          00000001800111f8     embree3:embree3.dll
 0002:00000200       __imp_rtcSetNewGeometryBuffer 0000000180011200     embree3:embree3.dll
 0002:00000208       __imp_rtcCommitGeometry    0000000180011208     embree3:embree3.dll
 0002:00000210       __imp_rtcReleaseGeometry   0000000180011210     embree3:embree3.dll
 0002:00000218       __imp_rtcNewGeometry       0000000180011218     embree3:embree3.dll
 0002:00000220       __imp_rtcSetDeviceErrorFunction 0000000180011220     embree3:embree3.dll
 0002:00000228       __imp_rtcGetDeviceError    0000000180011228     embree3:embree3.dll
 0002:00000230       __imp_rtcReleaseDevice     0000000180011230     embree3:embree3.dll
 0002:00000238       __imp_rtcNewDevice         0000000180011238     embree3:embree3.dll
 0002:00000240       \177embree3_NULL_THUNK_DATA 0000000180011240     embree3:embree3.dll
 0002:00000248       __imp__wsplitpath_s        0000000180011248     ucrtd:ucrtbased.dll
 0002:00000250       __imp_wcscpy_s             0000000180011250     ucrtd:ucrtbased.dll
 0002:00000258       __imp__wmakepath_s         0000000180011258     ucrtd:ucrtbased.dll
 0002:00000260       __imp__free_dbg            0000000180011260     ucrtd:ucrtbased.dll
 0002:00000268       __imp___stdio_common_vsprintf_s 0000000180011268     ucrtd:ucrtbased.dll
 0002:00000270       __imp_strcat_s             0000000180011270     ucrtd:ucrtbased.dll
 0002:00000278       __imp_strcpy_s             0000000180011278     ucrtd:ucrtbased.dll
 0002:00000280       __imp_terminate            0000000180011280     ucrtd:ucrtbased.dll
 0002:00000288       __imp__initterm_e          0000000180011288     ucrtd:ucrtbased.dll
 0002:00000290       __imp__initterm            0000000180011290     ucrtd:ucrtbased.dll
 0002:00000298       __imp__CrtDbgReportW       0000000180011298     ucrtd:ucrtbased.dll
 0002:000002a0       __imp__CrtDbgReport        00000001800112a0     ucrtd:ucrtbased.dll
 0002:000002a8       __imp__cexit               00000001800112a8     ucrtd:ucrtbased.dll
 0002:000002b0       __imp__crt_at_quick_exit   00000001800112b0     ucrtd:ucrtbased.dll
 0002:000002b8       __imp__crt_atexit          00000001800112b8     ucrtd:ucrtbased.dll
 0002:000002c0       __imp__execute_onexit_table 00000001800112c0     ucrtd:ucrtbased.dll
 0002:000002c8       __imp__register_onexit_function 00000001800112c8     ucrtd:ucrtbased.dll
 0002:000002d0       __imp__initialize_onexit_table 00000001800112d0     ucrtd:ucrtbased.dll
 0002:000002d8       __imp__initialize_narrow_environment 00000001800112d8     ucrtd:ucrtbased.dll
 0002:000002e0       __imp__configure_narrow_argv 00000001800112e0     ucrtd:ucrtbased.dll
 0002:000002e8       __imp__seh_filter_dll      00000001800112e8     ucrtd:ucrtbased.dll
 0002:000002f0       __imp_tanf                 00000001800112f0     ucrtd:ucrtbased.dll
 0002:000002f8       __imp_sqrtf                00000001800112f8     ucrtd:ucrtbased.dll
 0002:00000300       __imp_cosf                 0000000180011300     ucrtd:ucrtbased.dll
 0002:00000308       __imp_strlen               0000000180011308     ucrtd:ucrtbased.dll
 0002:00000310       __imp_strcmp               0000000180011310     ucrtd:ucrtbased.dll
 0002:00000318       __imp_tolower              0000000180011318     ucrtd:ucrtbased.dll
 0002:00000320       __imp__wassert             0000000180011320     ucrtd:ucrtbased.dll
 0002:00000328       __imp__aligned_malloc      0000000180011328     ucrtd:ucrtbased.dll
 0002:00000330       __imp__aligned_free        0000000180011330     ucrtd:ucrtbased.dll
 0002:00000338       __imp_sinf                 0000000180011338     ucrtd:ucrtbased.dll
 0002:00000340       \177ucrtbased_NULL_THUNK_DATA 0000000180011340     ucrtd:ucrtbased.dll
 0002:00000348       __guard_check_icall_fptr   0000000180011348     MSVCRTD:guard_support.obj
 0002:00000350       __guard_dispatch_icall_fptr 0000000180011350     MSVCRTD:guard_support.obj
 0002:00000358       __xc_a                     0000000180011358     MSVCRTD:initializers.obj
 0002:00000378       __xc_z                     0000000180011378     MSVCRTD:initializers.obj
 0002:00000380       __xi_a                     0000000180011380     MSVCRTD:initializers.obj
 0002:00000388       __xi_z                     0000000180011388     MSVCRTD:initializers.obj
 0002:00000390       __xp_a                     0000000180011390     MSVCRTD:initializers.obj
 0002:00000398       __xp_z                     0000000180011398     MSVCRTD:initializers.obj
 0002:000003a0       __xt_a                     00000001800113a0     MSVCRTD:initializers.obj
 0002:000003a8       __xt_z                     00000001800113a8     MSVCRTD:initializers.obj
 0002:000003b0       ??_C@_0DK@NMKFNLJE@E?3?2anis?2raycast_unity?2c_api?2src@ 00000001800113b0     raycast_manager_c_api.obj
 0002:000003f0       ??_C@_0BD@DOLJDMMA@Allocator?5was?5null@ 00000001800113f0     raycast_manager_c_api.obj
 0002:00000408       ??_C@_0BI@KCEKPHPA@RaycastManager?5was?5null@ 0000000180011408     raycast_manager_c_api.obj
 0002:00000420       ??_C@_0P@FLNMHJIE@Scene?5was?5null@ 0000000180011420     raycast_manager_c_api.obj
 0002:00000430       ??_C@_0DA@DMAGMOPJ@E?3?2anis?2raycast_unity?2c_api?2src@ 0000000180011430     scene_c_api.obj
 0002:00000d58       ??_C@_00CNPNBAHC@@         0000000180011d58     rcu_sdk:raycast_manager.obj
 0002:00000d60       ??_C@_0BC@ILEANOLC@RTC_ERROR_UNKNOWN@ 0000000180011d60     rcu_sdk:raycast_manager.obj
 0002:00000d74       ??_C@_06HPAOFLIG@EMBREE@   0000000180011d74     rcu_sdk:raycast_manager.obj
 0002:00000d80       ??_C@_0BL@HAOEFPIC@RTC_ERROR_INVALID_ARGUMENT@ 0000000180011d80     rcu_sdk:raycast_manager.obj
 0002:00000da0       ??_C@_0BM@HNGHEPHP@RTC_ERROR_INVALID_OPERATION@ 0000000180011da0     rcu_sdk:raycast_manager.obj
 0002:00000dc0       ??_C@_0BI@PHLKGJKD@RTC_ERROR_OUT_OF_MEMORY@ 0000000180011dc0     rcu_sdk:raycast_manager.obj
 0002:00000dd8       ??_C@_0BK@IPLBLLDO@RTC_ERROR_UNSUPPORTED_CPU@ 0000000180011dd8     rcu_sdk:raycast_manager.obj
 0002:00000df8       ??_C@_0BE@JFEAGBCH@RTC_ERROR_CANCELLED@ 0000000180011df8     rcu_sdk:raycast_manager.obj
 0002:00000e10       ??_C@_0BD@FLDFJNOC@invalid?5error?5code@ 0000000180011e10     rcu_sdk:raycast_manager.obj
 0002:00000e24       __real@3f800000            0000000180011e24     rcu_sdk:raycast_manager.obj
 0002:00000e28       __real@7f7fffff            0000000180011e28     rcu_sdk:raycast_manager.obj
 0002:00000f60       ??_7SystemAllocator@bento@@6B@ 0000000180011f60     bento_sdk:system_allocator.obj
 0002:00000f80       ??_C@_07DMOCMFND@FAILURE@  0000000180011f80     bento_sdk:security.obj
 0002:00000f90       ??_C@_1HA@PPFCGBHB@?$AAE?$AA?3?$AA?2?$AAa?$AAn?$AAi?$AAs?$AA?2?$AAr?$AAa?$AAy?$AAc?$AAa?$AAs?$AAt@ 0000000180011f90     bento_sdk:security.obj
 0002:00001000       ??_C@_1M@HLGKFCJM@?$AAf?$AAa?$AAl?$AAs?$AAe@ 0000000180012000     bento_sdk:security.obj
 0002:00001b10       ??_C@_0DH@FFMPHPBC@E?3?2anis?2raycast_unity?2bento?2src@ 0000000180012b10     bento_sdk:matrix4.obj
 0002:00001b48       ??_C@_0BJ@DHGJMDGE@function?5not?5implemented@ 0000000180012b48     bento_sdk:matrix4.obj
 0002:00001b64       ??_C@_01PKGAHCOL@?$CJ@     0000000180012b64     bento_sdk:matrix4.obj
 0002:00001b68       ??_C@_02KEGNLNML@?0?5@     0000000180012b68     bento_sdk:matrix4.obj
 0002:00001b6c       ??_C@_02MLAGHBOD@?0?6@     0000000180012b6c     bento_sdk:matrix4.obj
 0002:00001b70       ??_C@_09KGBOGBAA@Matrix4?6?$CI@ 0000000180012b70     bento_sdk:matrix4.obj
 0002:00001b7c       __real@00000000            0000000180012b7c     bento_sdk:matrix4.obj
 0002:00001b80       __real@40000000            0000000180012b80     bento_sdk:matrix4.obj
 0002:00001b84       __real@4048f5c3            0000000180012b84     bento_sdk:matrix4.obj
 0002:00001b88       __real@43b40000            0000000180012b88     bento_sdk:matrix4.obj
 0002:00001b8c       __real@bf800000            0000000180012b8c     bento_sdk:matrix4.obj
 0002:00001b90       __xmm@80000000800000008000000080000000 0000000180012b90     bento_sdk:matrix4.obj
 0002:00001ba0       ??_7IAllocator@bento@@6B@  0000000180012ba0     bento_sdk:allocator.obj
 0002:00001bc0       ??_7ILogger@bento@@6B@     0000000180012bc0     bento_sdk:system_logger.obj
 0002:00001bd0       ??_7SystemLogger@bento@@6B@ 0000000180012bd0     bento_sdk:system_logger.obj
 0002:00001be0       ??_C@_07NJGAEJFG@?$FLDEBUG?$FN@ 0000000180012be0     bento_sdk:system_logger.obj
 0002:00001be8       ??_C@_06EGHJMOEF@?$FLINFO?$FN@ 0000000180012be8     bento_sdk:system_logger.obj
 0002:00001bf0       ??_C@_09HLHFDKBC@?$FLWARNING?$FN@ 0000000180012bf0     bento_sdk:system_logger.obj
 0002:00001c00       ??_C@_07CEGNDBCD@?$FLERROR?$FN@ 0000000180012c00     bento_sdk:system_logger.obj
 0002:00001c08       ??_C@_01EEMJAFIK@?6@       0000000180012c08     bento_sdk:system_logger.obj
 0002:00001c0c       ??_C@_01LBDDMOBJ@?$FN@     0000000180012c0c     bento_sdk:system_logger.obj
 0002:00001c10       ??_C@_01OHGJGJJP@?$FL@     0000000180012c10     bento_sdk:system_logger.obj
 0002:00001c18       _pRawDllMain               0000000180012c18     MSVCRTD:dll_dllmain.obj
 0002:00001c18       _pDefaultRawDllMain        0000000180012c18     MSVCRTD:dll_dllmain.obj
 0002:00001c48       ??_C@_0BJ@HEGAHDFO@Stack?5pointer?5corruption@ 0000000180012c48     MSVCRTD:_userapi_.obj
 0002:00001c68       ??_C@_0CK@FEGOIOPB@Cast?5to?5smaller?5type?5causing?5lo@ 0000000180012c68     MSVCRTD:_userapi_.obj
 0002:00001c98       ??_C@_0BI@CIGMDCBH@Stack?5memory?5corruption@ 0000000180012c98     MSVCRTD:_userapi_.obj
 0002:00001cb0       ??_C@_0CK@CNLNOEPB@Local?5variable?5used?5before?5init@ 0000000180012cb0     MSVCRTD:_userapi_.obj
 0002:00001ce0       ??_C@_0BP@OGBCLIBO@Stack?5around?5_alloca?5corrupted@ 0000000180012ce0     MSVCRTD:_userapi_.obj
 0002:00001dc0       ??_C@_0NN@NGPKDKPD@The?5value?5of?5ESP?5was?5not?5proper@ 0000000180012dc0     MSVCRTD:_error_.obj
 0002:00001ea0       ??_C@_0BBN@GPMLNJCF@A?5cast?5to?5a?5smaller?5data?5type?5h@ 0000000180012ea0     MSVCRTD:_error_.obj
 0002:00001fc0       ??_C@_0BN@FFOINMNJ@Stack?5memory?5was?5corrupted?6?$AN@ 0000000180012fc0     MSVCRTD:_error_.obj
 0002:00001fe0       ??_C@_0DG@HKJMLLLP@A?5local?5variable?5was?5used?5befor@ 0000000180012fe0     MSVCRTD:_error_.obj
 0002:00002018       ??_C@_0CM@NGINOKPC@Stack?5memory?5around?5_alloca?5was@ 0000000180013018     MSVCRTD:_error_.obj
 0002:00002048       ??_C@_0BO@GNIAFIKK@Unknown?5Runtime?5Check?5Error?6?$AN@ 0000000180013048     MSVCRTD:_error_.obj
 0002:00002070       ??_C@_1GM@OLMCBDMB@?$AAR?$AAu?$AAn?$AAt?$AAi?$AAm?$AAe?$AA?5?$AAC?$AAh?$AAe?$AAc?$AAk?$AA?5?$AAE@ 0000000180013070     MSVCRTD:_error_.obj
 0002:000020e0       ??_C@_1EA@NFKNIFJP@?$AAR?$AAu?$AAn?$AA?9?$AAT?$AAi?$AAm?$AAe?$AA?5?$AAC?$AAh?$AAe?$AAc?$AAk?$AA?5@ 00000001800130e0     MSVCRTD:_error_.obj
 0002:00002120       ??_C@_0BB@PFFGGCJP@Unknown?5Filename@ 0000000180013120     MSVCRTD:_error_.obj
 0002:00002138       ??_C@_0BE@GNBOBNCK@Unknown?5Module?5Name@ 0000000180013138     MSVCRTD:_error_.obj
 0002:00002150       ??_C@_0CA@IODNCDPG@Run?9Time?5Check?5Failure?5?$CD?$CFd?5?9?5?$CFs@ 0000000180013150     MSVCRTD:_error_.obj
 0002:00002170       ??_C@_0CG@IAFNJNEE@Stack?5corrupted?5near?5unknown?5va@ 0000000180013170     MSVCRTD:_error_.obj
 0002:00002198       ??_C@_05MKKEDADM@?$CF?42X?5@ 0000000180013198     MSVCRTD:_error_.obj
 0002:000021a0       ??_C@_0EJ@LJKNEOLN@Stack?5area?5around?5_alloca?5memor@ 00000001800131a0     MSVCRTD:_error_.obj
 0002:000021ec       ??_C@_02LLMPMKNF@?$DO?5@   00000001800131ec     MSVCRTD:_error_.obj
 0002:000021f0       ??_C@_08OMAHNMHJ@?6Data?3?5?$DM@ 00000001800131f0     MSVCRTD:_error_.obj
 0002:00002200       ??_C@_0CK@DKGBICFE@?6Allocation?5number?5within?5this?5@ 0000000180013200     MSVCRTD:_error_.obj
 0002:00002230       ??_C@_07DFDJCKFN@?6Size?3?5@ 0000000180013230     MSVCRTD:_error_.obj
 0002:00002238       ??_C@_0N@MHFFIMFG@?6Address?3?50x@ 0000000180013238     MSVCRTD:_error_.obj
 0002:00002250       ??_C@_0EI@CLEPFNGI@Stack?5area?5around?5_alloca?5memor@ 0000000180013250     MSVCRTD:_error_.obj
 0002:00002298       ??_C@_0BK@ODNDAGKB@?$CFs?$CFs?$CFp?$CFs?$CFzd?$CFs?$CFd?$CFs?$CFs?$CFs?$CFs?$CFs@ 0000000180013298     MSVCRTD:_error_.obj
 0002:000022b8       ??_C@_0DE@OHJBPMBP@A?5variable?5is?5being?5used?5withou@ 00000001800132b8     MSVCRTD:_error_.obj
 0002:00002360       ??_C@_1EI@MLPKHBGE@?$AAa?$AAp?$AAi?$AA?9?$AAm?$AAs?$AA?9?$AAw?$AAi?$AAn?$AA?9?$AAc?$AAo?$AAr?$AAe@ 0000000180013360     MSVCRTD:_pdblkup_.obj
 0002:000023a8       ??_C@_1BK@JHLNAEJL@?$AAa?$AAd?$AAv?$AAa?$AAp?$AAi?$AA3?$AA2?$AA?4?$AAd?$AAl?$AAl@ 00000001800133a8     MSVCRTD:_pdblkup_.obj
 0002:000023c8       ??_C@_0O@COHOBMLB@RegOpenKeyExW@ 00000001800133c8     MSVCRTD:_pdblkup_.obj
 0002:000023d8       ??_C@_0BB@GLNAEDBD@RegQueryValueExW@ 00000001800133d8     MSVCRTD:_pdblkup_.obj
 0002:000023f0       ??_C@_0M@HLOHPNFA@RegCloseKey@ 00000001800133f0     MSVCRTD:_pdblkup_.obj
 0002:00002400       ??_C@_1HE@EBEAGLFB@?$AAS?$AAO?$AAF?$AAT?$AAW?$AAA?$AAR?$AAE?$AA?2?$AAW?$AAo?$AAw?$AA6?$AA4?$AA3@ 0000000180013400     MSVCRTD:_pdblkup_.obj
 0002:00002478       ??_C@_1BG@EABPBLLF@?$AAP?$AAr?$AAo?$AAd?$AAu?$AAc?$AAt?$AAD?$AAi?$AAr@ 0000000180013478     MSVCRTD:_pdblkup_.obj
 0002:000024b0       ??_C@_1BC@JINFINNJ@?$AAM?$AAS?$AAP?$AAD?$AAB?$AA1?$AA4?$AA0@ 00000001800134b0     MSVCRTD:_pdblkup_.obj
 0002:000024c8       ??_C@_0BB@KCIACLNC@PDBOpenValidate5@ 00000001800134c8     MSVCRTD:_pdblkup_.obj
 0002:000024dc       ??_C@_01KDCPPGHE@r@        00000001800134dc     MSVCRTD:_pdblkup_.obj
 0002:00002540       _load_config_used          0000000180013540     MSVCRTD:loadcfg.obj
 0002:00002950       __rtc_iaa                  0000000180013950     MSVCRTD:_initsect_.obj
 0002:000029c0       __rtc_izz                  00000001800139c0     MSVCRTD:_initsect_.obj
 0002:000029c8       __rtc_taa                  00000001800139c8     MSVCRTD:_initsect_.obj
 0002:00002a38       __rtc_tzz                  0000000180013a38     MSVCRTD:_initsect_.obj
 0002:00003988       __IMPORT_DESCRIPTOR_embree3 0000000180014988     embree3:embree3.dll
 0002:0000399c       __IMPORT_DESCRIPTOR_MSVCP140D 000000018001499c     msvcprtd:MSVCP140D.dll
 0002:000039b0       __IMPORT_DESCRIPTOR_VCOMP140D 00000001800149b0     VCOMPD:VCOMP140D.DLL
 0002:000039c4       __IMPORT_DESCRIPTOR_VCRUNTIME140D 00000001800149c4     vcruntimed:VCRUNTIME140D.dll
 0002:000039d8       __IMPORT_DESCRIPTOR_ucrtbased 00000001800149d8     ucrtd:ucrtbased.dll
 0002:000039ec       __IMPORT_DESCRIPTOR_KERNEL32 00000001800149ec     kernel32:KERNEL32.dll
 0002:00003a00       __NULL_IMPORT_DESCRIPTOR   0000000180014a00     embree3:embree3.dll
 0003:00000000       ?__default_logger@bento@@3PEAVILogger@1@EA 0000000180016000     bento_sdk:log.obj
 0003:00000008       __scrt_native_dllmain_reason 0000000180016008     MSVCRTD:utility.obj
 0003:00000010       __security_cookie_complement 0000000180016010     MSVCRTD:gs_cookie.obj
 0003:00000018       __security_cookie          0000000180016018     MSVCRTD:gs_cookie.obj
 0003:00000020       _fltused                   0000000180016020     MSVCRTD:fltused.obj
 0003:00000028       __isa_available            0000000180016028     MSVCRTD:_cpu_disp_.obj
 0003:0000002c       __isa_enabled              000000018001602c     MSVCRTD:_cpu_disp_.obj
 0003:00000030       __memcpy_nt_iters          0000000180016030     MSVCRTD:_cpu_disp_.obj
 0003:00000038       ?_RTC_ErrorLevels@@3PAHA   0000000180016038     MSVCRTD:_error_.obj
 0003:00000050       _You_must_link_with_exactly_one_OpenMP_library 0000000180016050     VCOMPD:unique.obj
 0003:00000054       _You_must_link_with_Microsoft_OpenMP_library 0000000180016054     VCOMPD:unique.obj
 0003:00000058       __scrt_ucrt_dll_is_in_use  0000000180016058     MSVCRTD:ucrt_stubs.obj
 0003:00000070       ?__default_system_logger@bento@@3VSystemLogger@1@A 0000000180016070     bento_sdk:log.obj
 0003:00000078       __scrt_current_native_startup_state 0000000180016078     MSVCRTD:utility.obj
 0003:00000080       __scrt_native_startup_lock 0000000180016080     MSVCRTD:utility.obj
 0003:000000c8       __favor                    00000001800160c8     MSVCRTD:_cpu_disp_.obj
 0003:000000cc       __scrt_debugger_hook_flag  00000001800160cc     MSVCRTD:utility_desktop.obj
 0003:000000e0       ?__type_info_root_node@@3U__type_info_node@@A 00000001800160e0     MSVCRTD:tncleanup.obj
 0003:000000f0       ?_OptionsStorage@?1??__local_stdio_printf_options@@9@4_KA 00000001800160f0     MSVCRTD:default_local_stdio_options.obj
 0003:000000f8       ?_OptionsStorage@?1??__local_stdio_scanf_options@@9@4_KA 00000001800160f8     MSVCRTD:default_local_stdio_options.obj
 0003:00000680       __dyn_tls_init_callback    0000000180016680     <common>

 entry point at        0001:0000d4b0

 Static symbols

 0002:fffef000       __guard_fids__             0000000180000000     MSVCRTD:guard_support.obj
 0004:fffe9000       $pdata$??0_Sentry_base@?$basic_ostream@DU?$char_traits@D@std@@@std@@QEAA@AEAV12@@Z 0000000180000000     bento_sdk:system_logger.obj
 0002:fffef000       $unwind$??1_Sentry_base@?$basic_ostream@DU?$char_traits@D@std@@@std@@QEAA@XZ 0000000180000000     bento_sdk:system_logger.obj
 0004:fffe9000       $pdata$??1_Sentry_base@?$basic_ostream@DU?$char_traits@D@std@@@std@@QEAA@XZ 0000000180000000     bento_sdk:system_logger.obj
 0002:fffef000       $cppxdata$??1_Sentry_base@?$basic_ostream@DU?$char_traits@D@std@@@std@@QEAA@XZ 0000000180000000     bento_sdk:system_logger.obj
 0002:fffef000       $ip2state$??1_Sentry_base@?$basic_ostream@DU?$char_traits@D@std@@@std@@QEAA@XZ 0000000180000000     bento_sdk:system_logger.obj
 0002:fffef000       $unwind$??0sentry@?$basic_ostream@DU?$char_traits@D@std@@@std@@QEAA@AEAV12@@Z 0000000180000000     bento_sdk:system_logger.obj
 0004:fffe9000       $pdata$??0sentry@?$basic_ostream@DU?$char_traits@D@std@@@std@@QEAA@AEAV12@@Z 0000000180000000     bento_sdk:system_logger.obj
 0002:fffef000       $cppxdata$??0sentry@?$basic_ostream@DU?$char_traits@D@std@@@std@@QEAA@AEAV12@@Z 0000000180000000     bento_sdk:system_logger.obj
 0002:fffef000       $stateUnwindMap$??0sentry@?$basic_ostream@DU?$char_traits@D@std@@@std@@QEAA@AEAV12@@Z 0000000180000000     bento_sdk:system_logger.obj
 0002:fffef000       $ip2state$??0sentry@?$basic_ostream@DU?$char_traits@D@std@@@std@@QEAA@AEAV12@@Z 0000000180000000     bento_sdk:system_logger.obj
 0002:fffef000       $unwind$?dtor$0@?0???0sentry@?$basic_ostream@DU?$char_traits@D@std@@@std@@QEAA@AEAV12@@Z@4HA 0000000180000000     bento_sdk:system_logger.obj
 0004:fffe9000       $pdata$?dtor$0@?0???0sentry@?$basic_ostream@DU?$char_traits@D@std@@@std@@QEAA@AEAV12@@Z@4HA 0000000180000000     bento_sdk:system_logger.obj
 0002:fffef000       $unwind$??1sentry@?$basic_ostream@DU?$char_traits@D@std@@@std@@QEAA@XZ 0000000180000000     bento_sdk:system_logger.obj
 0004:fffe9000       $pdata$??1sentry@?$basic_ostream@DU?$char_traits@D@std@@@std@@QEAA@XZ 0000000180000000     bento_sdk:system_logger.obj
 0000:fffe6000       .debug$S                   0000000180000000     rcu_dylib.exp
 0002:fffef000       $cppxdata$??1sentry@?$basic_ostream@DU?$char_traits@D@std@@@std@@QEAA@XZ 0000000180000000     bento_sdk:system_logger.obj
 0002:fffef000       $ip2state$??1sentry@?$basic_ostream@DU?$char_traits@D@std@@@std@@QEAA@XZ 0000000180000000     bento_sdk:system_logger.obj
 0000:fffe6000       .debug$S                   0000000180000000     kernel32:KERNEL32.dll
 0000:fffe6000       .debug$S                   0000000180000000     kernel32:KERNEL32.dll
 0000:fffe6000       .debug$S                   0000000180000000     kernel32:KERNEL32.dll
 0000:fffe6000       .debug$S                   0000000180000000     kernel32:KERNEL32.dll
 0000:fffe6000       .debug$S                   0000000180000000     kernel32:KERNEL32.dll
 0000:fffe6000       .debug$S                   0000000180000000     kernel32:KERNEL32.dll
 0000:fffe6000       .debug$S                   0000000180000000     kernel32:KERNEL32.dll
 0000:fffe6000       .debug$S                   0000000180000000     kernel32:KERNEL32.dll
 0000:fffe6000       .debug$S                   0000000180000000     kernel32:KERNEL32.dll
 0000:fffe6000       .debug$S                   0000000180000000     kernel32:KERNEL32.dll
 0000:fffe6000       .debug$S                   0000000180000000     kernel32:KERNEL32.dll
 0000:fffe6000       .debug$S                   0000000180000000     kernel32:KERNEL32.dll
 0000:fffe6000       .debug$S                   0000000180000000     kernel32:KERNEL32.dll
 0000:fffe6000       .debug$S                   0000000180000000     kernel32:KERNEL32.dll
 0000:fffe6000       .debug$S                   0000000180000000     kernel32:KERNEL32.dll
 0000:fffe6000       .debug$S                   0000000180000000     kernel32:KERNEL32.dll
 0000:fffe6000       .debug$S                   0000000180000000     kernel32:KERNEL32.dll
 0000:fffe6000       .debug$S                   0000000180000000     kernel32:KERNEL32.dll
 0000:fffe6000       .debug$S                   0000000180000000     kernel32:KERNEL32.dll
 0000:fffe6000       .debug$S                   0000000180000000     kernel32:KERNEL32.dll
 0000:fffe6000       .debug$S                   0000000180000000     kernel32:KERNEL32.dll
 0000:fffe6000       .debug$S                   0000000180000000     kernel32:KERNEL32.dll
 0000:fffe6000       .debug$S                   0000000180000000     kernel32:KERNEL32.dll
 0000:fffe6000       .debug$S                   0000000180000000     kernel32:KERNEL32.dll
 0000:fffe6000       .debug$S                   0000000180000000     kernel32:KERNEL32.dll
 0000:fffe6000       .debug$S                   0000000180000000     kernel32:KERNEL32.dll
 0000:fffe6000       .debug$S                   0000000180000000     kernel32:KERNEL32.dll
 0004:fffe9000       $pdata$?dtor$0@?0???$?6U?$char_traits@D@std@@@std@@YAAEAV?$basic_ostream@DU?$char_traits@D@std@@@0@AEAV10@PEBD@Z@4HA 0000000180000000     bento_sdk:system_logger.obj
 0000:fffe6000       .debug$S                   0000000180000000     ucrtd:ucrtbased.dll
 0000:fffe6000       .debug$S                   0000000180000000     ucrtd:ucrtbased.dll
 0000:fffe6000       .debug$S                   0000000180000000     ucrtd:ucrtbased.dll
 0000:fffe6000       .debug$S                   0000000180000000     ucrtd:ucrtbased.dll
 0000:fffe6000       .debug$S                   0000000180000000     ucrtd:ucrtbased.dll
 0000:fffe6000       .debug$S                   0000000180000000     ucrtd:ucrtbased.dll
 0000:fffe6000       .debug$S                   0000000180000000     ucrtd:ucrtbased.dll
 0000:fffe6000       .debug$S                   0000000180000000     ucrtd:ucrtbased.dll
 0000:fffe6000       .debug$S                   0000000180000000     ucrtd:ucrtbased.dll
 0000:fffe6000       .debug$S                   0000000180000000     ucrtd:ucrtbased.dll
 0000:fffe6000       .debug$S                   0000000180000000     ucrtd:ucrtbased.dll
 0000:fffe6000       .debug$S                   0000000180000000     ucrtd:ucrtbased.dll
 0000:fffe6000       .debug$S                   0000000180000000     ucrtd:ucrtbased.dll
 0000:fffe6000       .debug$S                   0000000180000000     ucrtd:ucrtbased.dll
 0000:fffe6000       .debug$S                   0000000180000000     ucrtd:ucrtbased.dll
 0000:fffe6000       .debug$S                   0000000180000000     ucrtd:ucrtbased.dll
 0000:fffe6000       .debug$S                   0000000180000000     ucrtd:ucrtbased.dll
 0000:fffe6000       .debug$S                   0000000180000000     ucrtd:ucrtbased.dll
 0000:fffe6000       .debug$S                   0000000180000000     ucrtd:ucrtbased.dll
 0000:fffe6000       .debug$S                   0000000180000000     ucrtd:ucrtbased.dll
 0000:fffe6000       .debug$S                   0000000180000000     ucrtd:ucrtbased.dll
 0000:fffe6000       .debug$S                   0000000180000000     ucrtd:ucrtbased.dll
 0000:fffe6000       .debug$S                   0000000180000000     ucrtd:ucrtbased.dll
 0000:fffe6000       .debug$S                   0000000180000000     ucrtd:ucrtbased.dll
 0000:fffe6000       .debug$S                   0000000180000000     ucrtd:ucrtbased.dll
 0000:fffe6000       .debug$S                   0000000180000000     ucrtd:ucrtbased.dll
 0000:fffe6000       .debug$S                   0000000180000000     ucrtd:ucrtbased.dll
 0000:fffe6000       .debug$S                   0000000180000000     ucrtd:ucrtbased.dll
 0000:fffe6000       .debug$S                   0000000180000000     ucrtd:ucrtbased.dll
 0000:fffe6000       .debug$S                   0000000180000000     ucrtd:ucrtbased.dll
 0000:fffe6000       .debug$S                   0000000180000000     ucrtd:ucrtbased.dll
 0002:fffef000       $unwind$?dtor$0@?0???$?6U?$char_traits@D@std@@@std@@YAAEAV?$basic_ostream@DU?$char_traits@D@std@@@0@AEAV10@PEBD@Z@4HA 0000000180000000     bento_sdk:system_logger.obj
 0000:fffe6000       .debug$S                   0000000180000000     vcruntimed:VCRUNTIME140D.dll
 0000:fffe6000       .debug$S                   0000000180000000     vcruntimed:VCRUNTIME140D.dll
 0000:fffe6000       .debug$S                   0000000180000000     vcruntimed:VCRUNTIME140D.dll
 0000:fffe6000       .debug$S                   0000000180000000     vcruntimed:VCRUNTIME140D.dll
 0000:fffe6000       .debug$S                   0000000180000000     vcruntimed:VCRUNTIME140D.dll
 0000:fffe6000       .debug$S                   0000000180000000     vcruntimed:VCRUNTIME140D.dll
 0000:fffe6000       .debug$S                   0000000180000000     vcruntimed:VCRUNTIME140D.dll
 0000:fffe6000       .debug$S                   0000000180000000     vcruntimed:VCRUNTIME140D.dll
 0000:fffe6000       .debug$S                   0000000180000000     vcruntimed:VCRUNTIME140D.dll
 0000:fffe6000       .debug$S                   0000000180000000     vcruntimed:VCRUNTIME140D.dll
 0002:fffef000       $ip2state$??$?6U?$char_traits@D@std@@@std@@YAAEAV?$basic_ostream@DU?$char_traits@D@std@@@0@AEAV10@PEBD@Z 0000000180000000     bento_sdk:system_logger.obj
 0000:fffe6000       .debug$S                   0000000180000000     VCOMPD:VCOMP140D.DLL
 0000:fffe6000       .debug$S                   0000000180000000     VCOMPD:VCOMP140D.DLL
 0000:fffe6000       .debug$S                   0000000180000000     VCOMPD:VCOMP140D.DLL
 0002:fffef000       $unwind$?resize@?$Vector@D@bento@@QEAAXI@Z 0000000180000000     bento_sdk:stream.obj
 0004:fffe9000       $pdata$?resize@?$Vector@D@bento@@QEAAXI@Z 0000000180000000     bento_sdk:stream.obj
 0002:fffef000       $unwind$?clear@?$Vector@D@bento@@QEAAXXZ 0000000180000000     bento_sdk:stream.obj
 0004:fffe9000       $pdata$?clear@?$Vector@D@bento@@QEAAXXZ 0000000180000000     bento_sdk:stream.obj
 0002:fffef000       $unwind$?reserve@?$Vector@D@bento@@QEAAXI@Z 0000000180000000     bento_sdk:stream.obj
 0004:fffe9000       $pdata$?reserve@?$Vector@D@bento@@QEAAXI@Z 0000000180000000     bento_sdk:stream.obj
 0000:fffe6000       .debug$S                   0000000180000000     embree3:embree3.dll
 0000:fffe6000       .debug$S                   0000000180000000     embree3:embree3.dll
 0000:fffe6000       .debug$S                   0000000180000000     embree3:embree3.dll
 0000:fffe6000       .debug$S                   0000000180000000     embree3:embree3.dll
 0000:fffe6000       .debug$S                   0000000180000000     embree3:embree3.dll
 0000:fffe6000       .debug$S                   0000000180000000     embree3:embree3.dll
 0000:fffe6000       .debug$S                   0000000180000000     embree3:embree3.dll
 0000:fffe6000       .debug$S                   0000000180000000     embree3:embree3.dll
 0000:fffe6000       .debug$S                   0000000180000000     embree3:embree3.dll
 0000:fffe6000       .debug$S                   0000000180000000     embree3:embree3.dll
 0000:fffe6000       .debug$S                   0000000180000000     embree3:embree3.dll
 0000:fffe6000       .debug$S                   0000000180000000     embree3:embree3.dll
 0000:fffe6000       .debug$S                   0000000180000000     embree3:embree3.dll
 0000:fffe6000       .debug$S                   0000000180000000     embree3:embree3.dll
 0002:fffef000       $stateUnwindMap$??$?6U?$char_traits@D@std@@@std@@YAAEAV?$basic_ostream@DU?$char_traits@D@std@@@0@AEAV10@PEBD@Z 0000000180000000     bento_sdk:system_logger.obj
 0000:fffe6000       .debug$S                   0000000180000000     msvcprtd:MSVCP140D.dll
 0000:fffe6000       .debug$S                   0000000180000000     msvcprtd:MSVCP140D.dll
 0000:fffe6000       .debug$S                   0000000180000000     msvcprtd:MSVCP140D.dll
 0000:fffe6000       .debug$S                   0000000180000000     msvcprtd:MSVCP140D.dll
 0000:fffe6000       .debug$S                   0000000180000000     msvcprtd:MSVCP140D.dll
 0000:fffe6000       .debug$S                   0000000180000000     msvcprtd:MSVCP140D.dll
 0000:fffe6000       .debug$S                   0000000180000000     msvcprtd:MSVCP140D.dll
 0000:fffe6000       .debug$S                   0000000180000000     msvcprtd:MSVCP140D.dll
 0002:fffef000       $unwind$??1?$Vector@D@bento@@QEAA@XZ 0000000180000000     bento_sdk:dynamic_string.obj
 0004:fffe9000       $pdata$??1?$Vector@D@bento@@QEAA@XZ 0000000180000000     bento_sdk:dynamic_string.obj
 0002:fffef000       $cppxdata$??1?$Vector@D@bento@@QEAA@XZ 0000000180000000     bento_sdk:dynamic_string.obj
 0000:fffe6000       .debug$S                   0000000180000000     msvcprtd:MSVCP140D.dll
 0002:fffef000       $ip2state$??1?$Vector@D@bento@@QEAA@XZ 0000000180000000     bento_sdk:dynamic_string.obj
 0000:fffe6000       .debug$S                   0000000180000000     msvcprtd:MSVCP140D.dll
 0002:fffef000       $unwind$?free@?$Vector@D@bento@@QEAAXXZ 0000000180000000     bento_sdk:dynamic_string.obj
 0000:fffe6000       .debug$S                   0000000180000000     msvcprtd:MSVCP140D.dll
 0000:fffe6000       .debug$S                   0000000180000000     msvcprtd:MSVCP140D.dll
 0000:fffe6000       .debug$S                   0000000180000000     msvcprtd:MSVCP140D.dll
 0004:fffe9000       $pdata$?free@?$Vector@D@bento@@QEAAXXZ 0000000180000000     bento_sdk:dynamic_string.obj
 0002:fffef000       $unwind$?clear@?$Vector@D@bento@@QEAAXXZ 0000000180000000     bento_sdk:dynamic_string.obj
 0000:fffe6000       .debug$S                   0000000180000000     msvcprtd:MSVCP140D.dll
 0004:fffe9000       $pdata$?clear@?$Vector@D@bento@@QEAAXXZ 0000000180000000     bento_sdk:dynamic_string.obj
 0004:fffe9000       $pdata$??$?6U?$char_traits@D@std@@@std@@YAAEAV?$basic_ostream@DU?$char_traits@D@std@@@0@AEAV10@PEBD@Z 0000000180000000     bento_sdk:system_logger.obj
 0002:fffef000       $unwind$??1DynamicString@bento@@QEAA@XZ 0000000180000000     bento_sdk:dynamic_string.obj
 0004:fffe9000       $pdata$??1DynamicString@bento@@QEAA@XZ 0000000180000000     bento_sdk:dynamic_string.obj
 0002:fffef000       $unwind$??$?6U?$char_traits@D@std@@@std@@YAAEAV?$basic_ostream@DU?$char_traits@D@std@@@0@AEAV10@PEBD@Z 0000000180000000     bento_sdk:system_logger.obj
 0002:fffef000       ??$?6U?$char_traits@D@std@@@std@@YAAEAV?$basic_ostream@DU?$char_traits@D@std@@@0@AEAV10@PEBD@Z$rtcName$0 0000000180000000     bento_sdk:system_logger.obj
 0004:fffe9000       $pdata$?__empty_global_delete@@YAXPEAX_K@Z 0000000180000000     bento_sdk:system_logger.obj
 0002:fffef000       $unwind$?__empty_global_delete@@YAXPEAX_K@Z 0000000180000000     bento_sdk:system_logger.obj
 0004:fffe9000       $pdata$?__empty_global_delete@@YAXPEAX@Z 0000000180000000     bento_sdk:system_logger.obj
 0002:fffef000       $unwind$?__empty_global_delete@@YAXPEAX@Z 0000000180000000     bento_sdk:system_logger.obj
 0001:fffff000       ?dtor$0@?0???0sentry@?$basic_ostream@DU?$char_traits@D@std@@@std@@QEAA@AEAV12@@Z@4HA 0000000180000000 f   bento_sdk:system_logger.obj
 0001:fffff000       ?dtor$0@?0???$?6U?$char_traits@D@std@@@std@@YAAEAV?$basic_ostream@DU?$char_traits@D@std@@@0@AEAV10@PEBD@Z@4HA 0000000180000000 f   bento_sdk:system_logger.obj
 0002:fffef000       __guard_fids__CRT_RTC_INIT 0000000180000000     MSVCRTD:_init_.obj
 0002:fffef000       __guard_fids__CRT_RTC_INITW 0000000180000000     MSVCRTD:_init_.obj
 0002:fffef000       __guard_fids_?dllmain_dispatch@@YAHQEAUHINSTANCE__@@KQEAX@Z 0000000180000000     MSVCRTD:dll_dllmain.obj
 0002:fffef000       __guard_fids___scrt_set_unhandled_exception_filter 0000000180000000     MSVCRTD:utility_desktop.obj
 0002:fffef000       $unwind$??0_Sentry_base@?$basic_ostream@DU?$char_traits@D@std@@@std@@QEAA@AEAV12@@Z 0000000180000000     bento_sdk:system_logger.obj
 0002:fffef000       __guard_fids__guard_icall_checks_enforced 0000000180000000     MSVCRTD:guard_support.obj
 0004:fffe9000       $pdata$?__empty_global_delete@@YAXPEAX_K@Z 0000000180000000     bento_sdk:matrix4.obj
 0002:fffef000       $unwind$?__empty_global_delete@@YAXPEAX_K@Z 0000000180000000     bento_sdk:matrix4.obj
 0004:fffe9000       $pdata$?__empty_global_delete@@YAXPEAX@Z 0000000180000000     bento_sdk:matrix4.obj
 0002:fffef000       $unwind$?__empty_global_delete@@YAXPEAX@Z 0000000180000000     bento_sdk:matrix4.obj
 0002:fffef010       ??$?6U?$char_traits@D@std@@@std@@YAAEAV?$basic_ostream@DU?$char_traits@D@std@@@0@AEAV10@PEBD@Z$rtcVarDesc 0000000180000010     bento_sdk:system_logger.obj
 0002:fffef050       ??$?6U?$char_traits@D@std@@@std@@YAAEAV?$basic_ostream@DU?$char_traits@D@std@@@0@AEAV10@PEBD@Z$rtcFrameData 0000000180000050     bento_sdk:system_logger.obj
 0002:fffef060       $cppxdata$??$?6U?$char_traits@D@std@@@std@@YAAEAV?$basic_ostream@DU?$char_traits@D@std@@@0@AEAV10@PEBD@Z 0000000180000060     bento_sdk:system_logger.obj
 0001:00000000       ??__E_base_allocator@@YAXXZ 0000000180001000 f   allocator_c_api.obj
 0001:00000040       ??__E_base_allocator@@YAXXZ 0000000180001040 f   scene_c_api.obj
 0001:00000080       ??__E__default_system_logger@bento@@YAXXZ 0000000180001080 f   bento_sdk:log.obj
 0001:00000c28       $LN13                      0000000180001c28     rcu_sdk:raycast_manager.obj
 0001:000015f0       ?run$omp$1@TRaycastManager@rcu@@QEAAXPEBUTRay@2@PEAUTIntersection@2@I@Z 00000001800025f0 f   rcu_sdk:raycast_manager.obj
 0001:0000c940       ?find_pe_section@@YAPEAU_IMAGE_SECTION_HEADER@@QEAE_K@Z 000000018000d940 f   MSVCRTD:utility.obj
 0001:0000ca20       ?is_potentially_valid_image_base@@YA_NQEAX@Z 000000018000da20 f   MSVCRTD:utility.obj
 0001:0000d090       ?dllmain_crt_dispatch@@YAHQEAUHINSTANCE__@@KQEAX@Z 000000018000e090 f   MSVCRTD:dll_dllmain.obj
 0001:0000d120       ?dllmain_crt_process_attach@@YAHQEAUHINSTANCE__@@QEAX@Z 000000018000e120 f   MSVCRTD:dll_dllmain.obj
 0001:0000d260       ?dllmain_crt_process_detach@@YAH_N@Z 000000018000e260 f   MSVCRTD:dll_dllmain.obj
 0001:0000d2f0       ?dllmain_dispatch@@YAHQEAUHINSTANCE__@@KQEAX@Z 000000018000e2f0 f   MSVCRTD:dll_dllmain.obj
 0001:0000d430       ?dllmain_raw@@YAHQEAUHINSTANCE__@@KQEAX@Z 000000018000e430 f   MSVCRTD:dll_dllmain.obj
 0001:0000d810       $$000000                   000000018000e810     MSVCRTD:_amdsecgs_.obj
 0001:0000e100       __get_entropy              000000018000f100 f   MSVCRTD:gs_support.obj
 0001:0000e3e0       ?DebuggerProbe@@YA_NK@Z    000000018000f3e0 f   MSVCRTD:_error_.obj
 0001:0000e420       ?DebuggerRuntime@@YA_NKHPEAXPEB_W@Z 000000018000f420 f   MSVCRTD:_error_.obj
 0001:0000e6f0       ?_getMemBlockDataString@@YAXPEAD0PEBD_K@Z 000000018000f6f0 f   MSVCRTD:_error_.obj
 0001:0000e7b0       ?_strlen_priv@@YA_KPEBD@Z  000000018000f7b0 f   MSVCRTD:_error_.obj
 0001:0000e7d0       ?failwithmessage@@YAXPEAXHHPEBD@Z 000000018000f7d0 f   MSVCRTD:_error_.obj
 0001:0000ea30       ?notify_debugger@@YAXAEBUtagEXCEPTION_VISUALCPP_DEBUG_INFO@@@Z 000000018000fa30 f   MSVCRTD:_error_.obj
 0001:0000eeb0       capture_current_context    000000018000feb0 f   MSVCRTD:gs_report.obj
 0001:0000ef50       capture_previous_context   000000018000ff50 f   MSVCRTD:gs_report.obj
 0001:0000f030       ?GetPdbDll@@YAPEAUHINSTANCE__@@XZ 0000000180010030 f   MSVCRTD:_pdblkup_.obj
 0001:0000f180       ?GetPdbDllFromInstallPath@@YAPEAUHINSTANCE__@@XZ 0000000180010180 f   MSVCRTD:_pdblkup_.obj
 0001:0000f430       ?GetPdbDllPathFromFilePath@@YAHPEB_WPEA_W_K@Z 0000000180010430 f   MSVCRTD:_pdblkup_.obj
 0001:0000fb20       $$000000                   0000000180010b20     MSVCRTD:_guard_dispatch_.obj
 0001:0000fb40       ?dtor$0@?0???0TRaycastManager@rcu@@QEAA@AEAVIAllocator@bento@@@Z@4HA 0000000180010b40 f   rcu_sdk:raycast_manager.obj
 0001:0000fb70       ?dtor$1@?0???0TRaycastManager@rcu@@QEAA@AEAVIAllocator@bento@@@Z@4HA 0000000180010b70 f   rcu_sdk:raycast_manager.obj
 0001:0000fba0       ?dtor$2@?0???0TRaycastManager@rcu@@QEAA@AEAVIAllocator@bento@@@Z@4HA 0000000180010ba0 f   rcu_sdk:raycast_manager.obj
 0001:0000fbd0       ?dtor$0@?0???0TGeometry@rcu@@QEAA@AEAVIAllocator@bento@@@Z@4HA 0000000180010bd0 f   rcu_sdk:scene.obj
 0001:0000fc00       ?dtor$1@?0???0TGeometry@rcu@@QEAA@AEAVIAllocator@bento@@@Z@4HA 0000000180010c00 f   rcu_sdk:scene.obj
 0001:0000fc30       ?dtor$2@?0???0TGeometry@rcu@@QEAA@AEAVIAllocator@bento@@@Z@4HA 0000000180010c30 f   rcu_sdk:scene.obj
 0001:0000fc60       ?dtor$0@?0???0TScene@rcu@@QEAA@AEAVIAllocator@bento@@@Z@4HA 0000000180010c60 f   rcu_sdk:scene.obj
 0001:0000fc90       ?dtor$0@?0???0DynamicString@bento@@QEAA@AEAVIAllocator@1@@Z@4HA 0000000180010c90 f   bento_sdk:dynamic_string.obj
 0001:0000fcc0       ?dtor$0@?0???0DynamicString@bento@@QEAA@AEAVIAllocator@1@I@Z@4HA 0000000180010cc0 f   bento_sdk:dynamic_string.obj
 0001:0000fcf0       ?dtor$0@?0???0DynamicString@bento@@QEAA@AEAVIAllocator@1@PEBD@Z@4HA 0000000180010cf0 f   bento_sdk:dynamic_string.obj
 0001:0000fd20       ?dtor$0@?0???0DynamicString@bento@@QEAA@AEBV01@@Z@4HA 0000000180010d20 f   bento_sdk:dynamic_string.obj
 0001:0000fd50       ?dtor$0@?0??substr@string@bento@@YA?AVDynamicString@2@AEBV32@II@Z@4HA 0000000180010d50 f   bento_sdk:dynamic_string.obj
 0001:0000fd80       ?dtor$0@?0???$?6U?$char_traits@D@std@@@std@@YAAEAV?$basic_ostream@DU?$char_traits@D@std@@@0@AEAV10@PEBD@Z@4HA 0000000180010d80 f   bento_sdk:matrix4.obj
 0001:0000fdb0       ?dtor$0@?0???0sentry@?$basic_ostream@DU?$char_traits@D@std@@@std@@QEAA@AEAV12@@Z@4HA 0000000180010db0 f   bento_sdk:matrix4.obj
 0001:0000fde0       __scrt_is_nonwritable_in_current_image$filt$0 0000000180010de0 f   MSVCRTD:utility.obj
 0001:0000fe20       ?fin$0@?0??dllmain_crt_process_attach@@YAHQEAUHINSTANCE__@@QEAX@Z@4HA 0000000180010e20 f   MSVCRTD:dll_dllmain.obj
 0001:0000fe40       ?fin$0@?0??dllmain_crt_process_detach@@YAH_N@Z@4HA 0000000180010e40 f   MSVCRTD:dll_dllmain.obj
 0001:0000fe60       ?filt$0@?0??dllmain_dispatch@@YAHQEAUHINSTANCE__@@KQEAX@Z@4HA 0000000180010e60 f   MSVCRTD:dll_dllmain.obj
 0001:0000feb0       ?filt$0@?0??notify_debugger@@YAXAEBUtagEXCEPTION_VISUALCPP_DEBUG_INFO@@@Z@4HA 0000000180010eb0 f   MSVCRTD:_error_.obj
 0001:0000fed0       ??__F_base_allocator@@YAXXZ 0000000180010ed0 f   allocator_c_api.obj
 0001:0000ff00       ??__F_base_allocator@@YAXXZ 0000000180010f00 f   scene_c_api.obj
 0001:0000ff30       ??__F__default_system_logger@bento@@YAXXZ 0000000180010f30 f   bento_sdk:log.obj
 0002:00000360       ?_base_allocator$initializer$@@3P6AXXZEA 0000000180011360     allocator_c_api.obj
 0002:00000368       ?_base_allocator$initializer$@@3P6AXXZEA 0000000180011368     scene_c_api.obj
 0002:00000370       ?__default_system_logger$initializer$@bento@@3P6AXXZEA 0000000180011370     bento_sdk:log.obj
 0002:00000460       $cppxdata$??0TRaycastManager@rcu@@QEAA@AEAVIAllocator@bento@@@Z 0000000180011460     rcu_sdk:raycast_manager.obj
 0002:00000490       ?run@TRaycastManager@rcu@@QEAAXPEBUTRay@2@PEAUTIntersection@2@I@Z$rtcName$0 0000000180011490     rcu_sdk:raycast_manager.obj
 0002:00000498       ?run@TRaycastManager@rcu@@QEAAXPEBUTRay@2@PEAUTIntersection@2@I@Z$rtcName$1 0000000180011498     rcu_sdk:raycast_manager.obj
 0002:0000049c       ?run@TRaycastManager@rcu@@QEAAXPEBUTRay@2@PEAUTIntersection@2@I@Z$rtcName$2 000000018001149c     rcu_sdk:raycast_manager.obj
 0002:000004a0       ?run@TRaycastManager@rcu@@QEAAXPEBUTRay@2@PEAUTIntersection@2@I@Z$rtcName$3 00000001800114a0     rcu_sdk:raycast_manager.obj
 0002:000004a4       ?run@TRaycastManager@rcu@@QEAAXPEBUTRay@2@PEAUTIntersection@2@I@Z$rtcName$4 00000001800114a4     rcu_sdk:raycast_manager.obj
 0002:000004a8       ?run@TRaycastManager@rcu@@QEAAXPEBUTRay@2@PEAUTIntersection@2@I@Z$rtcName$5 00000001800114a8     rcu_sdk:raycast_manager.obj
 0002:000004ac       ?run@TRaycastManager@rcu@@QEAAXPEBUTRay@2@PEAUTIntersection@2@I@Z$rtcName$6 00000001800114ac     rcu_sdk:raycast_manager.obj
 0002:000004b0       ?run@TRaycastManager@rcu@@QEAAXPEBUTRay@2@PEAUTIntersection@2@I@Z$rtcName$7 00000001800114b0     rcu_sdk:raycast_manager.obj
 0002:000004b4       ?run@TRaycastManager@rcu@@QEAAXPEBUTRay@2@PEAUTIntersection@2@I@Z$rtcName$8 00000001800114b4     rcu_sdk:raycast_manager.obj
 0002:000004b8       ?run@TRaycastManager@rcu@@QEAAXPEBUTRay@2@PEAUTIntersection@2@I@Z$rtcName$9 00000001800114b8     rcu_sdk:raycast_manager.obj
 0002:000004bc       ?run@TRaycastManager@rcu@@QEAAXPEBUTRay@2@PEAUTIntersection@2@I@Z$rtcName$10 00000001800114bc     rcu_sdk:raycast_manager.obj
 0002:000004c0       ?run@TRaycastManager@rcu@@QEAAXPEBUTRay@2@PEAUTIntersection@2@I@Z$rtcName$11 00000001800114c0     rcu_sdk:raycast_manager.obj
 0002:000004c4       ?run@TRaycastManager@rcu@@QEAAXPEBUTRay@2@PEAUTIntersection@2@I@Z$rtcName$12 00000001800114c4     rcu_sdk:raycast_manager.obj
 0002:000004c8       ?run@TRaycastManager@rcu@@QEAAXPEBUTRay@2@PEAUTIntersection@2@I@Z$rtcName$13 00000001800114c8     rcu_sdk:raycast_manager.obj
 0002:000004cc       ?run@TRaycastManager@rcu@@QEAAXPEBUTRay@2@PEAUTIntersection@2@I@Z$rtcName$14 00000001800114cc     rcu_sdk:raycast_manager.obj
 0002:000004d0       ?run@TRaycastManager@rcu@@QEAAXPEBUTRay@2@PEAUTIntersection@2@I@Z$rtcName$15 00000001800114d0     rcu_sdk:raycast_manager.obj
 0002:000004d4       ?run@TRaycastManager@rcu@@QEAAXPEBUTRay@2@PEAUTIntersection@2@I@Z$rtcName$16 00000001800114d4     rcu_sdk:raycast_manager.obj
 0002:000004d8       ?run@TRaycastManager@rcu@@QEAAXPEBUTRay@2@PEAUTIntersection@2@I@Z$rtcName$17 00000001800114d8     rcu_sdk:raycast_manager.obj
 0002:000004dc       ?run@TRaycastManager@rcu@@QEAAXPEBUTRay@2@PEAUTIntersection@2@I@Z$rtcName$18 00000001800114dc     rcu_sdk:raycast_manager.obj
 0002:000004e0       ?run@TRaycastManager@rcu@@QEAAXPEBUTRay@2@PEAUTIntersection@2@I@Z$rtcName$19 00000001800114e0     rcu_sdk:raycast_manager.obj
 0002:000004e4       ?run@TRaycastManager@rcu@@QEAAXPEBUTRay@2@PEAUTIntersection@2@I@Z$rtcName$20 00000001800114e4     rcu_sdk:raycast_manager.obj
 0002:000004e8       ?run@TRaycastManager@rcu@@QEAAXPEBUTRay@2@PEAUTIntersection@2@I@Z$rtcName$21 00000001800114e8     rcu_sdk:raycast_manager.obj
 0002:000004ec       ?run@TRaycastManager@rcu@@QEAAXPEBUTRay@2@PEAUTIntersection@2@I@Z$rtcName$22 00000001800114ec     rcu_sdk:raycast_manager.obj
 0002:000004f0       ?run@TRaycastManager@rcu@@QEAAXPEBUTRay@2@PEAUTIntersection@2@I@Z$rtcName$23 00000001800114f0     rcu_sdk:raycast_manager.obj
 0002:000004f4       ?run@TRaycastManager@rcu@@QEAAXPEBUTRay@2@PEAUTIntersection@2@I@Z$rtcName$24 00000001800114f4     rcu_sdk:raycast_manager.obj
 0002:000004f8       ?run@TRaycastManager@rcu@@QEAAXPEBUTRay@2@PEAUTIntersection@2@I@Z$rtcName$25 00000001800114f8     rcu_sdk:raycast_manager.obj
 0002:000004fc       ?run@TRaycastManager@rcu@@QEAAXPEBUTRay@2@PEAUTIntersection@2@I@Z$rtcName$26 00000001800114fc     rcu_sdk:raycast_manager.obj
 0002:00000500       ?run@TRaycastManager@rcu@@QEAAXPEBUTRay@2@PEAUTIntersection@2@I@Z$rtcName$27 0000000180011500     rcu_sdk:raycast_manager.obj
 0002:00000504       ?run@TRaycastManager@rcu@@QEAAXPEBUTRay@2@PEAUTIntersection@2@I@Z$rtcName$28 0000000180011504     rcu_sdk:raycast_manager.obj
 0002:00000508       ?run@TRaycastManager@rcu@@QEAAXPEBUTRay@2@PEAUTIntersection@2@I@Z$rtcName$29 0000000180011508     rcu_sdk:raycast_manager.obj
 0002:0000050c       ?run@TRaycastManager@rcu@@QEAAXPEBUTRay@2@PEAUTIntersection@2@I@Z$rtcName$30 000000018001150c     rcu_sdk:raycast_manager.obj
 0002:00000510       ?run@TRaycastManager@rcu@@QEAAXPEBUTRay@2@PEAUTIntersection@2@I@Z$rtcVarDesc 0000000180011510     rcu_sdk:raycast_manager.obj
 0002:00000cd0       ?run@TRaycastManager@rcu@@QEAAXPEBUTRay@2@PEAUTIntersection@2@I@Z$rtcFrameData 0000000180011cd0     rcu_sdk:raycast_manager.obj
 0002:00000ce0       $cppxdata$??1?$Vector@I@bento@@QEAA@XZ 0000000180011ce0     rcu_sdk:raycast_manager.obj
 0002:00000d08       $cppxdata$??1?$Vector@URTCRayHit16@@@bento@@QEAA@XZ 0000000180011d08     rcu_sdk:raycast_manager.obj
 0002:00000d30       $cppxdata$??1?$Vector@URTCRayHit@@@bento@@QEAA@XZ 0000000180011d30     rcu_sdk:raycast_manager.obj
 0002:00000e30       $cppxdata$??1?$Vector@D@bento@@QEAA@XZ 0000000180011e30     rcu_sdk:scene.obj
 0002:00000e58       $cppxdata$??0TGeometry@rcu@@QEAA@AEAVIAllocator@bento@@@Z 0000000180011e58     rcu_sdk:scene.obj
 0002:00000e80       $cppxdata$??1?$Vector@UVector3@bento@@@bento@@QEAA@XZ 0000000180011e80     rcu_sdk:scene.obj
 0002:00000ea8       $cppxdata$??1?$Vector@UVector2@bento@@@bento@@QEAA@XZ 0000000180011ea8     rcu_sdk:scene.obj
 0002:00000ed0       $cppxdata$??0TScene@rcu@@QEAA@AEAVIAllocator@bento@@@Z 0000000180011ed0     rcu_sdk:scene.obj
 0002:00000f00       ?append_geometry@rcu@@YAXAEAUTScene@1@IIPEAM11IPEAHIPEBM@Z$rtcName$0 0000000180011f00     rcu_sdk:scene.obj
 0002:00000f10       ?append_geometry@rcu@@YAXAEAUTScene@1@IIPEAM11IPEAHIPEBM@Z$rtcVarDesc 0000000180011f10     rcu_sdk:scene.obj
 0002:00000f50       ?append_geometry@rcu@@YAXAEAUTScene@1@IIPEAM11IPEAHIPEBM@Z$rtcFrameData 0000000180011f50     rcu_sdk:scene.obj
 0002:00001010       $cppxdata$??0DynamicString@bento@@QEAA@AEAVIAllocator@1@@Z 0000000180012010     bento_sdk:dynamic_string.obj
 0002:00001038       $cppxdata$??0DynamicString@bento@@QEAA@AEAVIAllocator@1@PEBD@Z 0000000180012038     bento_sdk:dynamic_string.obj
 0002:00001060       $cppxdata$??0DynamicString@bento@@QEAA@AEAVIAllocator@1@I@Z 0000000180012060     bento_sdk:dynamic_string.obj
 0002:00001088       $cppxdata$??0DynamicString@bento@@QEAA@AEBV01@@Z 0000000180012088     bento_sdk:dynamic_string.obj
 0002:000010b0       ?substr@string@bento@@YA?AVDynamicString@2@AEBV32@II@Z$rtcName$0 00000001800120b0     bento_sdk:dynamic_string.obj
 0002:000010c0       ?substr@string@bento@@YA?AVDynamicString@2@AEBV32@II@Z$rtcVarDesc 00000001800120c0     bento_sdk:dynamic_string.obj
 0002:00001100       ?substr@string@bento@@YA?AVDynamicString@2@AEBV32@II@Z$rtcFrameData 0000000180012100     bento_sdk:dynamic_string.obj
 0002:00001110       $cppxdata$?substr@string@bento@@YA?AVDynamicString@2@AEBV32@II@Z 0000000180012110     bento_sdk:dynamic_string.obj
 0002:00001140       ??$pack_vector_bytes@D@bento@@YAXAEAV?$Vector@D@0@AEBV10@@Z$rtcName$0 0000000180012140     bento_sdk:dynamic_string.obj
 0002:00001150       ??$pack_vector_bytes@D@bento@@YAXAEAV?$Vector@D@0@AEBV10@@Z$rtcVarDesc 0000000180012150     bento_sdk:dynamic_string.obj
 0002:00001190       ??$pack_vector_bytes@D@bento@@YAXAEAV?$Vector@D@0@AEBV10@@Z$rtcFrameData 0000000180012190     bento_sdk:dynamic_string.obj
 0002:000011a0       ??$unpack_vector_bytes@D@bento@@YAXAEAPEBDAEAV?$Vector@D@0@@Z$rtcName$0 00000001800121a0     bento_sdk:dynamic_string.obj
 0002:000011b0       ??$unpack_vector_bytes@D@bento@@YAXAEAPEBDAEAV?$Vector@D@0@@Z$rtcVarDesc 00000001800121b0     bento_sdk:dynamic_string.obj
 0002:000011f0       ??$unpack_vector_bytes@D@bento@@YAXAEAPEBDAEAV?$Vector@D@0@@Z$rtcFrameData 00000001800121f0     bento_sdk:dynamic_string.obj
 0002:00001200       ?GetTranslate@bento@@YA?AUVector3@1@AEBUMatrix4@1@@Z$rtcName$0 0000000180012200     bento_sdk:matrix4.obj
 0002:00001210       ?GetTranslate@bento@@YA?AUVector3@1@AEBUMatrix4@1@@Z$rtcVarDesc 0000000180012210     bento_sdk:matrix4.obj
 0002:00001250       ?GetTranslate@bento@@YA?AUVector3@1@AEBUMatrix4@1@@Z$rtcFrameData 0000000180012250     bento_sdk:matrix4.obj
 0002:00001260       ?XAxis@bento@@YA?AUVector3@1@AEBUMatrix4@1@@Z$rtcName$0 0000000180012260     bento_sdk:matrix4.obj
 0002:00001270       ?XAxis@bento@@YA?AUVector3@1@AEBUMatrix4@1@@Z$rtcVarDesc 0000000180012270     bento_sdk:matrix4.obj
 0002:000012b0       ?XAxis@bento@@YA?AUVector3@1@AEBUMatrix4@1@@Z$rtcFrameData 00000001800122b0     bento_sdk:matrix4.obj
 0002:000012c0       ?YAxis@bento@@YA?AUVector3@1@AEBUMatrix4@1@@Z$rtcName$0 00000001800122c0     bento_sdk:matrix4.obj
 0002:000012d0       ?YAxis@bento@@YA?AUVector3@1@AEBUMatrix4@1@@Z$rtcVarDesc 00000001800122d0     bento_sdk:matrix4.obj
 0002:00001310       ?YAxis@bento@@YA?AUVector3@1@AEBUMatrix4@1@@Z$rtcFrameData 0000000180012310     bento_sdk:matrix4.obj
 0002:00001320       ?ZAxis@bento@@YA?AUVector3@1@AEBUMatrix4@1@@Z$rtcName$0 0000000180012320     bento_sdk:matrix4.obj
 0002:00001330       ?ZAxis@bento@@YA?AUVector3@1@AEBUMatrix4@1@@Z$rtcVarDesc 0000000180012330     bento_sdk:matrix4.obj
 0002:00001370       ?ZAxis@bento@@YA?AUVector3@1@AEBUMatrix4@1@@Z$rtcFrameData 0000000180012370     bento_sdk:matrix4.obj
 0002:00001380       ?Inverse3x3@bento@@YA?AUMatrix3@1@AEBUMatrix4@1@@Z$rtcName$0 0000000180012380     bento_sdk:matrix4.obj
 0002:00001390       ?Inverse3x3@bento@@YA?AUMatrix3@1@AEBUMatrix4@1@@Z$rtcVarDesc 0000000180012390     bento_sdk:matrix4.obj
 0002:000013d0       ?Inverse3x3@bento@@YA?AUMatrix3@1@AEBUMatrix4@1@@Z$rtcFrameData 00000001800123d0     bento_sdk:matrix4.obj
 0002:000013e0       ?Inverse@bento@@YA?AUMatrix4@1@AEBU21@@Z$rtcName$0 00000001800123e0     bento_sdk:matrix4.obj
 0002:000013f0       ?Inverse@bento@@YA?AUMatrix4@1@AEBU21@@Z$rtcVarDesc 00000001800123f0     bento_sdk:matrix4.obj
 0002:00001430       ?Inverse@bento@@YA?AUMatrix4@1@AEBU21@@Z$rtcFrameData 0000000180012430     bento_sdk:matrix4.obj
 0002:00001440       ?Translate_M4@bento@@YA?AUMatrix4@1@AEBUVector4@1@@Z$rtcName$0 0000000180012440     bento_sdk:matrix4.obj
 0002:00001450       ?Translate_M4@bento@@YA?AUMatrix4@1@AEBUVector4@1@@Z$rtcVarDesc 0000000180012450     bento_sdk:matrix4.obj
 0002:00001490       ?Translate_M4@bento@@YA?AUMatrix4@1@AEBUVector4@1@@Z$rtcFrameData 0000000180012490     bento_sdk:matrix4.obj
 0002:000014a0       ?Translate_M4@bento@@YA?AUMatrix4@1@AEBUVector3@1@@Z$rtcName$0 00000001800124a0     bento_sdk:matrix4.obj
 0002:000014b0       ?Translate_M4@bento@@YA?AUMatrix4@1@AEBUVector3@1@@Z$rtcVarDesc 00000001800124b0     bento_sdk:matrix4.obj
 0002:000014f0       ?Translate_M4@bento@@YA?AUMatrix4@1@AEBUVector3@1@@Z$rtcFrameData 00000001800124f0     bento_sdk:matrix4.obj
 0002:00001500       ?Rotate@bento@@YA?AUMatrix4@1@MAEBUVector3@1@@Z$rtcName$0 0000000180012500     bento_sdk:matrix4.obj
 0002:00001510       ?Rotate@bento@@YA?AUMatrix4@1@MAEBUVector3@1@@Z$rtcVarDesc 0000000180012510     bento_sdk:matrix4.obj
 0002:00001550       ?Rotate@bento@@YA?AUMatrix4@1@MAEBUVector3@1@@Z$rtcFrameData 0000000180012550     bento_sdk:matrix4.obj
 0002:00001560       ?RotateXAxis@bento@@YA?AUMatrix4@1@M@Z$rtcName$0 0000000180012560     bento_sdk:matrix4.obj
 0002:00001570       ?RotateXAxis@bento@@YA?AUMatrix4@1@M@Z$rtcVarDesc 0000000180012570     bento_sdk:matrix4.obj
 0002:000015b0       ?RotateXAxis@bento@@YA?AUMatrix4@1@M@Z$rtcFrameData 00000001800125b0     bento_sdk:matrix4.obj
 0002:000015c0       ?RotateYAxis@bento@@YA?AUMatrix4@1@M@Z$rtcName$0 00000001800125c0     bento_sdk:matrix4.obj
 0002:000015d0       ?RotateYAxis@bento@@YA?AUMatrix4@1@M@Z$rtcVarDesc 00000001800125d0     bento_sdk:matrix4.obj
 0002:00001610       ?RotateYAxis@bento@@YA?AUMatrix4@1@M@Z$rtcFrameData 0000000180012610     bento_sdk:matrix4.obj
 0002:00001620       ?RotateZAxis@bento@@YA?AUMatrix4@1@M@Z$rtcName$0 0000000180012620     bento_sdk:matrix4.obj
 0002:00001630       ?RotateZAxis@bento@@YA?AUMatrix4@1@M@Z$rtcVarDesc 0000000180012630     bento_sdk:matrix4.obj
 0002:00001670       ?RotateZAxis@bento@@YA?AUMatrix4@1@M@Z$rtcFrameData 0000000180012670     bento_sdk:matrix4.obj
 0002:00001680       ?transpose@bento@@YA?AUMatrix4@1@AEBU21@@Z$rtcName$0 0000000180012680     bento_sdk:matrix4.obj
 0002:00001688       ?transpose@bento@@YA?AUMatrix4@1@AEBU21@@Z$rtcName$1 0000000180012688     bento_sdk:matrix4.obj
 0002:00001690       ?transpose@bento@@YA?AUMatrix4@1@AEBU21@@Z$rtcName$2 0000000180012690     bento_sdk:matrix4.obj
 0002:00001698       ?transpose@bento@@YA?AUMatrix4@1@AEBU21@@Z$rtcName$3 0000000180012698     bento_sdk:matrix4.obj
 0002:000016a0       ?transpose@bento@@YA?AUMatrix4@1@AEBU21@@Z$rtcName$4 00000001800126a0     bento_sdk:matrix4.obj
 0002:000016a8       ?transpose@bento@@YA?AUMatrix4@1@AEBU21@@Z$rtcName$5 00000001800126a8     bento_sdk:matrix4.obj
 0002:000016b0       ?transpose@bento@@YA?AUMatrix4@1@AEBU21@@Z$rtcName$6 00000001800126b0     bento_sdk:matrix4.obj
 0002:000016b8       ?transpose@bento@@YA?AUMatrix4@1@AEBU21@@Z$rtcFrameData 00000001800126b8     bento_sdk:matrix4.obj
 0002:000016d0       ?transpose@bento@@YA?AUMatrix4@1@AEBU21@@Z$rtcVarDesc 00000001800126d0     bento_sdk:matrix4.obj
 0002:00001890       ??Dbento@@YA?AUVector4@0@AEBUMatrix4@0@AEBU10@@Z$rtcName$0 0000000180012890     bento_sdk:matrix4.obj
 0002:000018a0       ??Dbento@@YA?AUVector4@0@AEBUMatrix4@0@AEBU10@@Z$rtcVarDesc 00000001800128a0     bento_sdk:matrix4.obj
 0002:000018e0       ??Dbento@@YA?AUVector4@0@AEBUMatrix4@0@AEBU10@@Z$rtcFrameData 00000001800128e0     bento_sdk:matrix4.obj
 0002:000018f0       ??Dbento@@YA?AUVector3@0@AEBUMatrix4@0@AEBU10@@Z$rtcName$0 00000001800128f0     bento_sdk:matrix4.obj
 0002:00001900       ??Dbento@@YA?AUVector3@0@AEBUMatrix4@0@AEBU10@@Z$rtcVarDesc 0000000180012900     bento_sdk:matrix4.obj
 0002:00001940       ??Dbento@@YA?AUVector3@0@AEBUMatrix4@0@AEBU10@@Z$rtcFrameData 0000000180012940     bento_sdk:matrix4.obj
 0002:00001950       ??Dbento@@YA?AUMatrix4@0@AEBU10@0@Z$rtcName$0 0000000180012950     bento_sdk:matrix4.obj
 0002:00001960       ??Dbento@@YA?AUMatrix4@0@AEBU10@0@Z$rtcVarDesc 0000000180012960     bento_sdk:matrix4.obj
 0002:000019a0       ??Dbento@@YA?AUMatrix4@0@AEBU10@0@Z$rtcFrameData 00000001800129a0     bento_sdk:matrix4.obj
 0002:000019b0       ??$fill_n@PEAMHM@std@@YAPEAMPEAMHAEBM@Z$rtcName$0 00000001800129b0     bento_sdk:matrix4.obj
 0002:000019c0       ??$fill_n@PEAMHM@std@@YAPEAMPEAMHAEBM@Z$rtcVarDesc 00000001800129c0     bento_sdk:matrix4.obj
 0002:00001a00       ??$fill_n@PEAMHM@std@@YAPEAMPEAMHAEBM@Z$rtcFrameData 0000000180012a00     bento_sdk:matrix4.obj
 0002:00001a10       ??$?6U?$char_traits@D@std@@@std@@YAAEAV?$basic_ostream@DU?$char_traits@D@std@@@0@AEAV10@PEBD@Z$rtcName$0 0000000180012a10     bento_sdk:matrix4.obj
 0002:00001a20       ??$?6U?$char_traits@D@std@@@std@@YAAEAV?$basic_ostream@DU?$char_traits@D@std@@@0@AEAV10@PEBD@Z$rtcVarDesc 0000000180012a20     bento_sdk:matrix4.obj
 0002:00001a60       ??$?6U?$char_traits@D@std@@@std@@YAAEAV?$basic_ostream@DU?$char_traits@D@std@@@0@AEAV10@PEBD@Z$rtcFrameData 0000000180012a60     bento_sdk:matrix4.obj
 0002:00001a70       $cppxdata$??$?6U?$char_traits@D@std@@@std@@YAAEAV?$basic_ostream@DU?$char_traits@D@std@@@0@AEAV10@PEBD@Z 0000000180012a70     bento_sdk:matrix4.obj
 0002:00001a98       $cppxdata$??1_Sentry_base@?$basic_ostream@DU?$char_traits@D@std@@@std@@QEAA@XZ 0000000180012a98     bento_sdk:matrix4.obj
 0002:00001ac0       $cppxdata$??0sentry@?$basic_ostream@DU?$char_traits@D@std@@@std@@QEAA@AEAV12@@Z 0000000180012ac0     bento_sdk:matrix4.obj
 0002:00001ae8       $cppxdata$??1sentry@?$basic_ostream@DU?$char_traits@D@std@@@std@@QEAA@XZ 0000000180012ae8     bento_sdk:matrix4.obj
 0002:00001c20       ?_RTC_errlist@@3QBQEBDB    0000000180012c20     MSVCRTD:_userapi_.obj
 0002:00001d00       ?_RTC_ErrorMessages@@3QBQEBDB 0000000180012d00     MSVCRTD:_error_.obj
 0002:00001d30       ?_RTC_NoFalsePositives@@3QBHB 0000000180012d30     MSVCRTD:_error_.obj
 0002:00001d48       ?stack_premsg@@3QBDB       0000000180012d48     MSVCRTD:_error_.obj
 0002:00001d68       ?stack_postmsg@@3QBDB      0000000180012d68     MSVCRTD:_error_.obj
 0002:00001d80       ?uninit_premsg@@3QBDB      0000000180012d80     MSVCRTD:_error_.obj
 0002:00001d90       ?uninit_postmsg@@3QBDB     0000000180012d90     MSVCRTD:_error_.obj
 0002:000022f0       GS_ExceptionPointers       00000001800132f0     MSVCRTD:gs_report.obj
 0002:00002300       ?mspdbName@@3QB_WB         0000000180013300     MSVCRTD:_pdblkup_.obj
 0002:00002330       ?debugCrtFileName@@3QB_WB  0000000180013330     MSVCRTD:_pdblkup_.obj
 0002:00002490       ?dllExt@?1??GetPdbDllPathFromFilePath@@YAHPEB_WPEA_W_K@Z@4QB_WB 0000000180013490     MSVCRTD:_pdblkup_.obj
 0002:00002498       ?mspdbFilename@?1??GetPdbDllPathFromFilePath@@YAHPEB_WPEA_W_K@Z@4QB_WB 0000000180013498     MSVCRTD:_pdblkup_.obj
 0002:00002958       _RTC_InitBase.rtc$IMZ      0000000180013958     allocator_c_api.obj
 0002:00002960       _RTC_InitBase.rtc$IMZ      0000000180013960     raycast_manager_c_api.obj
 0002:00002968       _RTC_InitBase.rtc$IMZ      0000000180013968     scene_c_api.obj
 0002:00002970       _RTC_InitBase.rtc$IMZ      0000000180013970     rcu_sdk:raycast_manager.obj
 0002:00002978       _RTC_InitBase.rtc$IMZ      0000000180013978     rcu_sdk:scene.obj
 0002:00002980       _RTC_InitBase.rtc$IMZ      0000000180013980     bento_sdk:system_allocator.obj
 0002:00002988       _RTC_InitBase.rtc$IMZ      0000000180013988     bento_sdk:security.obj
 0002:00002990       _RTC_InitBase.rtc$IMZ      0000000180013990     bento_sdk:log.obj
 0002:00002998       _RTC_InitBase.rtc$IMZ      0000000180013998     bento_sdk:dynamic_string.obj
 0002:000029a0       _RTC_InitBase.rtc$IMZ      00000001800139a0     bento_sdk:matrix4.obj
 0002:000029a8       _RTC_InitBase.rtc$IMZ      00000001800139a8     bento_sdk:allocator.obj
 0002:000029b0       _RTC_InitBase.rtc$IMZ      00000001800139b0     bento_sdk:system_logger.obj
 0002:000029b8       _RTC_InitBase.rtc$IMZ      00000001800139b8     bento_sdk:stream.obj
 0002:000029d0       _RTC_Shutdown.rtc$TMZ      00000001800139d0     allocator_c_api.obj
 0002:000029d8       _RTC_Shutdown.rtc$TMZ      00000001800139d8     raycast_manager_c_api.obj
 0002:000029e0       _RTC_Shutdown.rtc$TMZ      00000001800139e0     scene_c_api.obj
 0002:000029e8       _RTC_Shutdown.rtc$TMZ      00000001800139e8     rcu_sdk:raycast_manager.obj
 0002:000029f0       _RTC_Shutdown.rtc$TMZ      00000001800139f0     rcu_sdk:scene.obj
 0002:000029f8       _RTC_Shutdown.rtc$TMZ      00000001800139f8     bento_sdk:system_allocator.obj
 0002:00002a00       _RTC_Shutdown.rtc$TMZ      0000000180013a00     bento_sdk:security.obj
 0002:00002a08       _RTC_Shutdown.rtc$TMZ      0000000180013a08     bento_sdk:log.obj
 0002:00002a10       _RTC_Shutdown.rtc$TMZ      0000000180013a10     bento_sdk:dynamic_string.obj
 0002:00002a18       _RTC_Shutdown.rtc$TMZ      0000000180013a18     bento_sdk:matrix4.obj
 0002:00002a20       _RTC_Shutdown.rtc$TMZ      0000000180013a20     bento_sdk:allocator.obj
 0002:00002a28       _RTC_Shutdown.rtc$TMZ      0000000180013a28     bento_sdk:system_logger.obj
 0002:00002a30       _RTC_Shutdown.rtc$TMZ      0000000180013a30     bento_sdk:stream.obj
 0002:00002a40       $unwind$rcu_create_allocator 0000000180013a40     allocator_c_api.obj
 0002:00002a48       $unwind$rcu_destroy_allocator 0000000180013a48     allocator_c_api.obj
 0002:00002a50       $unwind$??__E_base_allocator@@YAXXZ 0000000180013a50     allocator_c_api.obj
 0002:00002a58       $unwind$??__F_base_allocator@@YAXXZ 0000000180013a58     allocator_c_api.obj
 0002:00002a60       $unwind$rcu_create_raycast_manager 0000000180013a60     raycast_manager_c_api.obj
 0002:00002a68       $unwind$rcu_raycast_manager_setup 0000000180013a68     raycast_manager_c_api.obj
 0002:00002a70       $unwind$rcu_raycast_manager_release 0000000180013a70     raycast_manager_c_api.obj
 0002:00002a78       $unwind$rcu_raycast_manager_run 0000000180013a78     raycast_manager_c_api.obj
 0002:00002a80       $unwind$rcu_destroy_raycast_manager 0000000180013a80     raycast_manager_c_api.obj
 0002:00002a88       $unwind$rcu_create_scene   0000000180013a88     scene_c_api.obj
 0002:00002a90       $unwind$rcu_scene_append_geometry 0000000180013a90     scene_c_api.obj
 0002:00002a98       $unwind$rcu_destroy_scene  0000000180013a98     scene_c_api.obj
 0002:00002aa0       $unwind$??__E_base_allocator@@YAXXZ 0000000180013aa0     scene_c_api.obj
 0002:00002aa8       $unwind$??__F_base_allocator@@YAXXZ 0000000180013aa8     scene_c_api.obj
 0002:00002ab0       $unwind$??0TRaycastManager@rcu@@QEAA@AEAVIAllocator@bento@@@Z 0000000180013ab0     rcu_sdk:raycast_manager.obj
 0002:00002ac0       $stateUnwindMap$??0TRaycastManager@rcu@@QEAA@AEAVIAllocator@bento@@@Z 0000000180013ac0     rcu_sdk:raycast_manager.obj
 0002:00002ad8       $ip2state$??0TRaycastManager@rcu@@QEAA@AEAVIAllocator@bento@@@Z 0000000180013ad8     rcu_sdk:raycast_manager.obj
 0002:00002b00       $unwind$?dtor$0@?0???0TRaycastManager@rcu@@QEAA@AEAVIAllocator@bento@@@Z@4HA 0000000180013b00     rcu_sdk:raycast_manager.obj
 0002:00002b0c       $unwind$?dtor$1@?0???0TRaycastManager@rcu@@QEAA@AEAVIAllocator@bento@@@Z@4HA 0000000180013b0c     rcu_sdk:raycast_manager.obj
 0002:00002b18       $unwind$?dtor$2@?0???0TRaycastManager@rcu@@QEAA@AEAVIAllocator@bento@@@Z@4HA 0000000180013b18     rcu_sdk:raycast_manager.obj
 0002:00002b24       $unwind$??1TRaycastManager@rcu@@QEAA@XZ 0000000180013b24     rcu_sdk:raycast_manager.obj
 0002:00002b2c       $unwind$?setup@TRaycastManager@rcu@@QEAAXAEBUTScene@2@@Z 0000000180013b2c     rcu_sdk:raycast_manager.obj
 0002:00002b34       $unwind$?release@TRaycastManager@rcu@@QEAAXXZ 0000000180013b34     rcu_sdk:raycast_manager.obj
 0002:00002b3c       $unwind$?run@TRaycastManager@rcu@@QEAAXPEBUTRay@2@PEAUTIntersection@2@I@Z 0000000180013b3c     rcu_sdk:raycast_manager.obj
 0002:00002b50       $unwind$??0?$Vector@I@bento@@QEAA@AEAVIAllocator@1@@Z 0000000180013b50     rcu_sdk:raycast_manager.obj
 0002:00002b58       $unwind$??1?$Vector@I@bento@@QEAA@XZ 0000000180013b58     rcu_sdk:raycast_manager.obj
 0002:00002b68       $ip2state$??1?$Vector@I@bento@@QEAA@XZ 0000000180013b68     rcu_sdk:raycast_manager.obj
 0002:00002b70       $unwind$?resize@?$Vector@I@bento@@QEAAXI@Z 0000000180013b70     rcu_sdk:raycast_manager.obj
 0002:00002b78       $unwind$?free@?$Vector@I@bento@@QEAAXXZ 0000000180013b78     rcu_sdk:raycast_manager.obj
 0002:00002b80       $unwind$?clear@?$Vector@I@bento@@QEAAXXZ 0000000180013b80     rcu_sdk:raycast_manager.obj
 0002:00002b88       $unwind$?reserve@?$Vector@I@bento@@QEAAXI@Z 0000000180013b88     rcu_sdk:raycast_manager.obj
 0002:00002b90       $unwind$??0?$Vector@URTCRayHit16@@@bento@@QEAA@AEAVIAllocator@1@@Z 0000000180013b90     rcu_sdk:raycast_manager.obj
 0002:00002b98       $unwind$??1?$Vector@URTCRayHit16@@@bento@@QEAA@XZ 0000000180013b98     rcu_sdk:raycast_manager.obj
 0002:00002ba8       $ip2state$??1?$Vector@URTCRayHit16@@@bento@@QEAA@XZ 0000000180013ba8     rcu_sdk:raycast_manager.obj
 0002:00002bb0       $unwind$?resize@?$Vector@URTCRayHit16@@@bento@@QEAAXI@Z 0000000180013bb0     rcu_sdk:raycast_manager.obj
 0002:00002bb8       $unwind$?free@?$Vector@URTCRayHit16@@@bento@@QEAAXXZ 0000000180013bb8     rcu_sdk:raycast_manager.obj
 0002:00002bc0       $unwind$?clear@?$Vector@URTCRayHit16@@@bento@@QEAAXXZ 0000000180013bc0     rcu_sdk:raycast_manager.obj
 0002:00002bc8       $unwind$?reserve@?$Vector@URTCRayHit16@@@bento@@QEAAXI@Z 0000000180013bc8     rcu_sdk:raycast_manager.obj
 0002:00002bd0       $unwind$??0?$Vector@URTCRayHit@@@bento@@QEAA@AEAVIAllocator@1@I@Z 0000000180013bd0     rcu_sdk:raycast_manager.obj
 0002:00002bd8       $unwind$??1?$Vector@URTCRayHit@@@bento@@QEAA@XZ 0000000180013bd8     rcu_sdk:raycast_manager.obj
 0002:00002be8       $ip2state$??1?$Vector@URTCRayHit@@@bento@@QEAA@XZ 0000000180013be8     rcu_sdk:raycast_manager.obj
 0002:00002bf0       $unwind$?resize@?$Vector@URTCRayHit@@@bento@@QEAAXI@Z 0000000180013bf0     rcu_sdk:raycast_manager.obj
 0002:00002bf8       $unwind$?free@?$Vector@URTCRayHit@@@bento@@QEAAXXZ 0000000180013bf8     rcu_sdk:raycast_manager.obj
 0002:00002c00       $unwind$?clear@?$Vector@URTCRayHit@@@bento@@QEAAXXZ 0000000180013c00     rcu_sdk:raycast_manager.obj
 0002:00002c08       $unwind$?reserve@?$Vector@URTCRayHit@@@bento@@QEAAXI@Z 0000000180013c08     rcu_sdk:raycast_manager.obj
 0002:00002c10       $unwind$?error_handler@rcu@@YAXPEAXW4RTCError@@PEBD@Z 0000000180013c10     rcu_sdk:raycast_manager.obj
 0002:00002c18       $unwind$?run$omp$1@TRaycastManager@rcu@@QEAAXPEBUTRay@2@PEAUTIntersection@2@I@Z 0000000180013c18     rcu_sdk:raycast_manager.obj
 0002:00002c20       $unwind$?__empty_global_delete@@YAXPEAX@Z 0000000180013c20     rcu_sdk:scene.obj
 0002:00002c28       $unwind$?__empty_global_delete@@YAXPEAX_K@Z 0000000180013c28     rcu_sdk:scene.obj
 0002:00002c30       $unwind$??1?$Vector@D@bento@@QEAA@XZ 0000000180013c30     rcu_sdk:scene.obj
 0002:00002c40       $ip2state$??1?$Vector@D@bento@@QEAA@XZ 0000000180013c40     rcu_sdk:scene.obj
 0002:00002c48       $unwind$?free@?$Vector@D@bento@@QEAAXXZ 0000000180013c48     rcu_sdk:scene.obj
 0002:00002c50       $unwind$?clear@?$Vector@D@bento@@QEAAXXZ 0000000180013c50     rcu_sdk:scene.obj
 0002:00002c58       $unwind$??1DynamicString@bento@@QEAA@XZ 0000000180013c58     rcu_sdk:scene.obj
 0002:00002c60       $unwind$??0TGeometry@rcu@@QEAA@AEAVIAllocator@bento@@@Z 0000000180013c60     rcu_sdk:scene.obj
 0002:00002c70       $stateUnwindMap$??0TGeometry@rcu@@QEAA@AEAVIAllocator@bento@@@Z 0000000180013c70     rcu_sdk:scene.obj
 0002:00002c88       $ip2state$??0TGeometry@rcu@@QEAA@AEAVIAllocator@bento@@@Z 0000000180013c88     rcu_sdk:scene.obj
 0002:00002cb0       $unwind$?dtor$0@?0???0TGeometry@rcu@@QEAA@AEAVIAllocator@bento@@@Z@4HA 0000000180013cb0     rcu_sdk:scene.obj
 0002:00002cbc       $unwind$?dtor$1@?0???0TGeometry@rcu@@QEAA@AEAVIAllocator@bento@@@Z@4HA 0000000180013cbc     rcu_sdk:scene.obj
 0002:00002cc8       $unwind$?dtor$2@?0???0TGeometry@rcu@@QEAA@AEAVIAllocator@bento@@@Z@4HA 0000000180013cc8     rcu_sdk:scene.obj
 0002:00002cd4       $unwind$??0?$Vector@UVector3@bento@@@bento@@QEAA@AEAVIAllocator@1@@Z 0000000180013cd4     rcu_sdk:scene.obj
 0002:00002cdc       $unwind$??1?$Vector@UVector3@bento@@@bento@@QEAA@XZ 0000000180013cdc     rcu_sdk:scene.obj
 0002:00002cf0       $ip2state$??1?$Vector@UVector3@bento@@@bento@@QEAA@XZ 0000000180013cf0     rcu_sdk:scene.obj
 0002:00002cf8       $unwind$?resize@?$Vector@UVector3@bento@@@bento@@QEAAXI@Z 0000000180013cf8     rcu_sdk:scene.obj
 0002:00002d00       $unwind$?free@?$Vector@UVector3@bento@@@bento@@QEAAXXZ 0000000180013d00     rcu_sdk:scene.obj
 0002:00002d08       $unwind$?clear@?$Vector@UVector3@bento@@@bento@@QEAAXXZ 0000000180013d08     rcu_sdk:scene.obj
 0002:00002d10       $unwind$?reserve@?$Vector@UVector3@bento@@@bento@@QEAAXI@Z 0000000180013d10     rcu_sdk:scene.obj
 0002:00002d18       $unwind$??0?$Vector@UVector2@bento@@@bento@@QEAA@AEAVIAllocator@1@@Z 0000000180013d18     rcu_sdk:scene.obj
 0002:00002d20       $unwind$??1?$Vector@UVector2@bento@@@bento@@QEAA@XZ 0000000180013d20     rcu_sdk:scene.obj
 0002:00002d30       $ip2state$??1?$Vector@UVector2@bento@@@bento@@QEAA@XZ 0000000180013d30     rcu_sdk:scene.obj
 0002:00002d38       $unwind$?resize@?$Vector@UVector2@bento@@@bento@@QEAAXI@Z 0000000180013d38     rcu_sdk:scene.obj
 0002:00002d40       $unwind$?free@?$Vector@UVector2@bento@@@bento@@QEAAXXZ 0000000180013d40     rcu_sdk:scene.obj
 0002:00002d48       $unwind$?clear@?$Vector@UVector2@bento@@@bento@@QEAAXXZ 0000000180013d48     rcu_sdk:scene.obj
 0002:00002d50       $unwind$?reserve@?$Vector@UVector2@bento@@@bento@@QEAAXI@Z 0000000180013d50     rcu_sdk:scene.obj
 0002:00002d58       $unwind$??0?$Vector@UIVector3@bento@@@bento@@QEAA@AEAVIAllocator@1@@Z 0000000180013d58     rcu_sdk:scene.obj
 0002:00002d60       $unwind$?resize@?$Vector@UIVector3@bento@@@bento@@QEAAXI@Z 0000000180013d60     rcu_sdk:scene.obj
 0002:00002d68       $unwind$?clear@?$Vector@UIVector3@bento@@@bento@@QEAAXXZ 0000000180013d68     rcu_sdk:scene.obj
 0002:00002d70       $unwind$?reserve@?$Vector@UIVector3@bento@@@bento@@QEAAXI@Z 0000000180013d70     rcu_sdk:scene.obj
 0002:00002d78       $unwind$??0TScene@rcu@@QEAA@AEAVIAllocator@bento@@@Z 0000000180013d78     rcu_sdk:scene.obj
 0002:00002d88       $stateUnwindMap$??0TScene@rcu@@QEAA@AEAVIAllocator@bento@@@Z 0000000180013d88     rcu_sdk:scene.obj
 0002:00002d90       $ip2state$??0TScene@rcu@@QEAA@AEAVIAllocator@bento@@@Z 0000000180013d90     rcu_sdk:scene.obj
 0002:00002da8       $unwind$?dtor$0@?0???0TScene@rcu@@QEAA@AEAVIAllocator@bento@@@Z@4HA 0000000180013da8     rcu_sdk:scene.obj
 0002:00002db4       $unwind$??0?$Vector@UTGeometry@rcu@@@bento@@QEAA@AEAVIAllocator@1@@Z 0000000180013db4     rcu_sdk:scene.obj
 0002:00002dbc       $unwind$?reserve@?$Vector@UTGeometry@rcu@@@bento@@QEAAXI@Z 0000000180013dbc     rcu_sdk:scene.obj
 0002:00002dc4       $unwind$?extend@?$Vector@UTGeometry@rcu@@@bento@@QEAAAEAUTGeometry@rcu@@XZ 0000000180013dc4     rcu_sdk:scene.obj
 0002:00002dcc       $unwind$?append_geometry@rcu@@YAXAEAUTScene@1@IIPEAM11IPEAHIPEBM@Z 0000000180013dcc     rcu_sdk:scene.obj
 0002:00002de0       $unwind$??0SystemAllocator@bento@@QEAA@XZ 0000000180013de0     bento_sdk:system_allocator.obj
 0002:00002de8       $unwind$??1SystemAllocator@bento@@UEAA@XZ 0000000180013de8     bento_sdk:system_allocator.obj
 0002:00002df0       $unwind$?allocate@SystemAllocator@bento@@UEAAPEAX_K0@Z 0000000180013df0     bento_sdk:system_allocator.obj
 0002:00002df8       $unwind$?reallocate@SystemAllocator@bento@@UEAAPEAXPEAX_K11@Z 0000000180013df8     bento_sdk:system_allocator.obj
 0002:00002e00       $unwind$?deallocate@SystemAllocator@bento@@UEAAXPEAX@Z 0000000180013e00     bento_sdk:system_allocator.obj
 0002:00002e08       $unwind$??_GSystemAllocator@bento@@UEAAPEAXI@Z 0000000180013e08     bento_sdk:system_allocator.obj
 0002:00002e10       $unwind$?__handle_fail@bento@@YAXPEBD0H@Z 0000000180013e10     bento_sdk:security.obj
 0002:00002e18       $unwind$?print_trace@bento@@YAXXZ 0000000180013e18     bento_sdk:security.obj
 0002:00002e20       $unwind$?default_logger@bento@@YAPEAVILogger@1@XZ 0000000180013e20     bento_sdk:log.obj
 0002:00002e28       $unwind$?set_default_logger@bento@@YAXPEAVILogger@1@@Z 0000000180013e28     bento_sdk:log.obj
 0002:00002e30       $unwind$?reset_logger@bento@@YAXXZ 0000000180013e30     bento_sdk:log.obj
 0002:00002e38       $unwind$??__E__default_system_logger@bento@@YAXXZ 0000000180013e38     bento_sdk:log.obj
 0002:00002e40       $unwind$??__F__default_system_logger@bento@@YAXXZ 0000000180013e40     bento_sdk:log.obj
 0002:00002e48       $unwind$?strlen32@bento@@YAIPEBD@Z 0000000180013e48     bento_sdk:dynamic_string.obj
 0002:00002e50       $unwind$?find_last_of@bento@@YAIPEBDD@Z 0000000180013e50     bento_sdk:dynamic_string.obj
 0002:00002e58       $unwind$??0DynamicString@bento@@QEAA@AEAVIAllocator@1@@Z 0000000180013e58     bento_sdk:dynamic_string.obj
 0002:00002e68       $stateUnwindMap$??0DynamicString@bento@@QEAA@AEAVIAllocator@1@@Z 0000000180013e68     bento_sdk:dynamic_string.obj
 0002:00002e70       $ip2state$??0DynamicString@bento@@QEAA@AEAVIAllocator@1@@Z 0000000180013e70     bento_sdk:dynamic_string.obj
 0002:00002e88       $unwind$?dtor$0@?0???0DynamicString@bento@@QEAA@AEAVIAllocator@1@@Z@4HA 0000000180013e88     bento_sdk:dynamic_string.obj
 0002:00002e94       $unwind$??0DynamicString@bento@@QEAA@AEAVIAllocator@1@PEBD@Z 0000000180013e94     bento_sdk:dynamic_string.obj
 0002:00002ea4       $stateUnwindMap$??0DynamicString@bento@@QEAA@AEAVIAllocator@1@PEBD@Z 0000000180013ea4     bento_sdk:dynamic_string.obj
 0002:00002eb0       $ip2state$??0DynamicString@bento@@QEAA@AEAVIAllocator@1@PEBD@Z 0000000180013eb0     bento_sdk:dynamic_string.obj
 0002:00002ec8       $unwind$?dtor$0@?0???0DynamicString@bento@@QEAA@AEAVIAllocator@1@PEBD@Z@4HA 0000000180013ec8     bento_sdk:dynamic_string.obj
 0002:00002ed4       $unwind$??0DynamicString@bento@@QEAA@AEAVIAllocator@1@I@Z 0000000180013ed4     bento_sdk:dynamic_string.obj
 0002:00002ee4       $stateUnwindMap$??0DynamicString@bento@@QEAA@AEAVIAllocator@1@I@Z 0000000180013ee4     bento_sdk:dynamic_string.obj
 0002:00002ef0       $ip2state$??0DynamicString@bento@@QEAA@AEAVIAllocator@1@I@Z 0000000180013ef0     bento_sdk:dynamic_string.obj
 0002:00002f08       $unwind$?dtor$0@?0???0DynamicString@bento@@QEAA@AEAVIAllocator@1@I@Z@4HA 0000000180013f08     bento_sdk:dynamic_string.obj
 0002:00002f14       $unwind$??0DynamicString@bento@@QEAA@AEBV01@@Z 0000000180013f14     bento_sdk:dynamic_string.obj
 0002:00002f24       $stateUnwindMap$??0DynamicString@bento@@QEAA@AEBV01@@Z 0000000180013f24     bento_sdk:dynamic_string.obj
 0002:00002f30       $ip2state$??0DynamicString@bento@@QEAA@AEBV01@@Z 0000000180013f30     bento_sdk:dynamic_string.obj
 0002:00002f48       $unwind$?dtor$0@?0???0DynamicString@bento@@QEAA@AEBV01@@Z@4HA 0000000180013f48     bento_sdk:dynamic_string.obj
 0002:00002f54       $unwind$?resize@DynamicString@bento@@QEAAXI@Z 0000000180013f54     bento_sdk:dynamic_string.obj
 0002:00002f5c       $unwind$?size@DynamicString@bento@@QEBAIXZ 0000000180013f5c     bento_sdk:dynamic_string.obj
 0002:00002f64       $unwind$??4DynamicString@bento@@QEAAAEAV01@AEBV01@@Z 0000000180013f64     bento_sdk:dynamic_string.obj
 0002:00002f6c       $unwind$??4DynamicString@bento@@QEAAAEAV01@PEBD@Z 0000000180013f6c     bento_sdk:dynamic_string.obj
 0002:00002f74       $unwind$??YDynamicString@bento@@QEAAAEAV01@PEBD@Z 0000000180013f74     bento_sdk:dynamic_string.obj
 0002:00002f7c       $unwind$??YDynamicString@bento@@QEAAAEAV01@AEBV01@@Z 0000000180013f7c     bento_sdk:dynamic_string.obj
 0002:00002f84       $unwind$??8DynamicString@bento@@QEBA_NPEBD@Z 0000000180013f84     bento_sdk:dynamic_string.obj
 0002:00002f8c       $unwind$??9DynamicString@bento@@QEBA_NPEBD@Z 0000000180013f8c     bento_sdk:dynamic_string.obj
 0002:00002f94       $unwind$??0?$Vector@D@bento@@QEAA@AEAVIAllocator@1@@Z 0000000180013f94     bento_sdk:dynamic_string.obj
 0002:00002f9c       $unwind$?resize@?$Vector@D@bento@@QEAAXI@Z 0000000180013f9c     bento_sdk:dynamic_string.obj
 0002:00002fa4       $unwind$?reserve@?$Vector@D@bento@@QEAAXI@Z 0000000180013fa4     bento_sdk:dynamic_string.obj
 0002:00002fac       $unwind$?to_lower_case@string@bento@@YAXAEAVDynamicString@2@@Z 0000000180013fac     bento_sdk:dynamic_string.obj
 0002:00002fb4       $unwind$?substr@string@bento@@YA?AVDynamicString@2@AEBV32@II@Z 0000000180013fb4     bento_sdk:dynamic_string.obj
 0002:00002fc8       $stateUnwindMap$?substr@string@bento@@YA?AVDynamicString@2@AEBV32@II@Z 0000000180013fc8     bento_sdk:dynamic_string.obj
 0002:00002fd0       $ip2state$?substr@string@bento@@YA?AVDynamicString@2@AEBV32@II@Z 0000000180013fd0     bento_sdk:dynamic_string.obj
 0002:00002fe8       $unwind$?dtor$0@?0??substr@string@bento@@YA?AVDynamicString@2@AEBV32@II@Z@4HA 0000000180013fe8     bento_sdk:dynamic_string.obj
 0002:00002ff4       $unwind$?pack_type@bento@@YAXAEAV?$Vector@D@1@AEBVDynamicString@1@@Z 0000000180013ff4     bento_sdk:dynamic_string.obj
 0002:00002ffc       $unwind$?unpack_type@bento@@YAXAEAPEBDAEAVDynamicString@1@@Z 0000000180013ffc     bento_sdk:dynamic_string.obj
 0002:00003004       $unwind$??$pack_vector_bytes@D@bento@@YAXAEAV?$Vector@D@0@AEBV10@@Z 0000000180014004     bento_sdk:dynamic_string.obj
 0002:0000300c       $unwind$??$unpack_vector_bytes@D@bento@@YAXAEAPEBDAEAV?$Vector@D@0@@Z 000000018001400c     bento_sdk:dynamic_string.obj
 0002:00003014       $unwind$??$pack_bytes@I@bento@@YAXAEAV?$Vector@D@0@AEBI@Z 0000000180014014     bento_sdk:dynamic_string.obj
 0002:0000301c       $unwind$??$unpack_bytes@I@bento@@YAXAEAPEBDAEAI@Z 000000018001401c     bento_sdk:dynamic_string.obj
 0002:00003024       $unwind$?matrix4@bento@@YAXAEAUMatrix4@1@PEAM@Z 0000000180014024     bento_sdk:matrix4.obj
 0002:0000302c       $unwind$?SetIdentity@bento@@YAXAEAUMatrix4@1@@Z 000000018001402c     bento_sdk:matrix4.obj
 0002:00003034       $unwind$?ResetToZero@bento@@YAXAEAUMatrix4@1@@Z 0000000180014034     bento_sdk:matrix4.obj
 0002:0000303c       $unwind$?AsPerspective@bento@@YAXAEAUMatrix4@1@MMMM@Z 000000018001403c     bento_sdk:matrix4.obj
 0002:00003044       $unwind$?GetTranslate@bento@@YA?AUVector3@1@AEBUMatrix4@1@@Z 0000000180014044     bento_sdk:matrix4.obj
 0002:00003058       $unwind$?XAxis@bento@@YA?AUVector3@1@AEBUMatrix4@1@@Z 0000000180014058     bento_sdk:matrix4.obj
 0002:0000306c       $unwind$?YAxis@bento@@YA?AUVector3@1@AEBUMatrix4@1@@Z 000000018001406c     bento_sdk:matrix4.obj
 0002:00003080       $unwind$?ZAxis@bento@@YA?AUVector3@1@AEBUMatrix4@1@@Z 0000000180014080     bento_sdk:matrix4.obj
 0002:00003094       $unwind$?XRow@bento@@YAPEBUVector4@1@AEBUMatrix4@1@@Z 0000000180014094     bento_sdk:matrix4.obj
 0002:0000309c       $unwind$?YRow@bento@@YAPEBUVector4@1@AEBUMatrix4@1@@Z 000000018001409c     bento_sdk:matrix4.obj
 0002:000030a4       $unwind$?ZRow@bento@@YAPEBUVector4@1@AEBUMatrix4@1@@Z 00000001800140a4     bento_sdk:matrix4.obj
 0002:000030ac       $unwind$?WRow@bento@@YAPEBUVector4@1@AEBUMatrix4@1@@Z 00000001800140ac     bento_sdk:matrix4.obj
 0002:000030b4       $unwind$?Det@bento@@YAMAEBUMatrix4@1@@Z 00000001800140b4     bento_sdk:matrix4.obj
 0002:000030bc       $unwind$?Inverse3x3@bento@@YA?AUMatrix3@1@AEBUMatrix4@1@@Z 00000001800140bc     bento_sdk:matrix4.obj
 0002:000030d0       $unwind$?Inverse@bento@@YA?AUMatrix4@1@AEBU21@@Z 00000001800140d0     bento_sdk:matrix4.obj
 0002:000030e4       $unwind$?Translate_M4@bento@@YA?AUMatrix4@1@AEBUVector4@1@@Z 00000001800140e4     bento_sdk:matrix4.obj
 0002:000030f8       $unwind$?Translate_M4@bento@@YA?AUMatrix4@1@AEBUVector3@1@@Z 00000001800140f8     bento_sdk:matrix4.obj
 0002:0000310c       $unwind$?Rotate@bento@@YA?AUMatrix4@1@MAEBUVector3@1@@Z 000000018001410c     bento_sdk:matrix4.obj
 0002:00003120       $unwind$?ToTable@bento@@YAXAEBUMatrix4@1@PEAM@Z 0000000180014120     bento_sdk:matrix4.obj
 0002:00003128       $unwind$?RotateXAxis@bento@@YA?AUMatrix4@1@M@Z 0000000180014128     bento_sdk:matrix4.obj
 0002:0000313c       $unwind$?RotateYAxis@bento@@YA?AUMatrix4@1@M@Z 000000018001413c     bento_sdk:matrix4.obj
 0002:00003150       $unwind$?RotateZAxis@bento@@YA?AUMatrix4@1@M@Z 0000000180014150     bento_sdk:matrix4.obj
 0002:00003164       $unwind$?transpose@bento@@YA?AUMatrix4@1@AEBU21@@Z 0000000180014164     bento_sdk:matrix4.obj
 0002:00003178       $unwind$??Dbento@@YA?AUVector4@0@AEBUMatrix4@0@AEBU10@@Z 0000000180014178     bento_sdk:matrix4.obj
 0002:0000318c       $unwind$??Dbento@@YA?AUVector3@0@AEBUMatrix4@0@AEBU10@@Z 000000018001418c     bento_sdk:matrix4.obj
 0002:000031a0       $unwind$??Dbento@@YA?AUMatrix4@0@AEBU10@0@Z 00000001800141a0     bento_sdk:matrix4.obj
 0002:000031b4       $unwind$?Set@bento@@YAAEAUMatrix4@1@AEAU21@AEBU21@@Z 00000001800141b4     bento_sdk:matrix4.obj
 0002:000031bc       $unwind$??6bento@@YAAEAV?$basic_ostream@DU?$char_traits@D@std@@@std@@AEAV12@AEBUMatrix4@0@@Z 00000001800141bc     bento_sdk:matrix4.obj
 0002:000031d4       $unwind$??$fill_n@PEAMHM@std@@YAPEAMPEAMHAEBM@Z 00000001800141d4     bento_sdk:matrix4.obj
 0002:000031dc       $unwind$??$?6U?$char_traits@D@std@@@std@@YAAEAV?$basic_ostream@DU?$char_traits@D@std@@@0@AEAV10@PEBD@Z 00000001800141dc     bento_sdk:matrix4.obj
 0002:000031f0       $stateUnwindMap$??$?6U?$char_traits@D@std@@@std@@YAAEAV?$basic_ostream@DU?$char_traits@D@std@@@0@AEAV10@PEBD@Z 00000001800141f0     bento_sdk:matrix4.obj
 0002:00003200       $ip2state$??$?6U?$char_traits@D@std@@@std@@YAAEAV?$basic_ostream@DU?$char_traits@D@std@@@0@AEAV10@PEBD@Z 0000000180014200     bento_sdk:matrix4.obj
 0002:00003220       $unwind$?dtor$0@?0???$?6U?$char_traits@D@std@@@std@@YAAEAV?$basic_ostream@DU?$char_traits@D@std@@@0@AEAV10@PEBD@Z@4HA 0000000180014220     bento_sdk:matrix4.obj
 0002:0000322c       $unwind$??0_Sentry_base@?$basic_ostream@DU?$char_traits@D@std@@@std@@QEAA@AEAV12@@Z 000000018001422c     bento_sdk:matrix4.obj
 0002:00003234       $unwind$??1_Sentry_base@?$basic_ostream@DU?$char_traits@D@std@@@std@@QEAA@XZ 0000000180014234     bento_sdk:matrix4.obj
 0002:00003248       $ip2state$??1_Sentry_base@?$basic_ostream@DU?$char_traits@D@std@@@std@@QEAA@XZ 0000000180014248     bento_sdk:matrix4.obj
 0002:00003250       $unwind$??0sentry@?$basic_ostream@DU?$char_traits@D@std@@@std@@QEAA@AEAV12@@Z 0000000180014250     bento_sdk:matrix4.obj
 0002:00003260       $stateUnwindMap$??0sentry@?$basic_ostream@DU?$char_traits@D@std@@@std@@QEAA@AEAV12@@Z 0000000180014260     bento_sdk:matrix4.obj
 0002:00003268       $ip2state$??0sentry@?$basic_ostream@DU?$char_traits@D@std@@@std@@QEAA@AEAV12@@Z 0000000180014268     bento_sdk:matrix4.obj
 0002:00003280       $unwind$?dtor$0@?0???0sentry@?$basic_ostream@DU?$char_traits@D@std@@@std@@QEAA@AEAV12@@Z@4HA 0000000180014280     bento_sdk:matrix4.obj
 0002:0000328c       $unwind$??1sentry@?$basic_ostream@DU?$char_traits@D@std@@@std@@QEAA@XZ 000000018001428c     bento_sdk:matrix4.obj
 0002:000032a0       $ip2state$??1sentry@?$basic_ostream@DU?$char_traits@D@std@@@std@@QEAA@XZ 00000001800142a0     bento_sdk:matrix4.obj
 0002:000032a8       $unwind$??0IAllocator@bento@@QEAA@XZ 00000001800142a8     bento_sdk:allocator.obj
 0002:000032b0       $unwind$??1IAllocator@bento@@UEAA@XZ 00000001800142b0     bento_sdk:allocator.obj
 0002:000032b8       $unwind$??_GIAllocator@bento@@UEAAPEAXI@Z 00000001800142b8     bento_sdk:allocator.obj
 0002:000032c0       $unwind$??_GILogger@bento@@UEAAPEAXI@Z 00000001800142c0     bento_sdk:system_logger.obj
 0002:000032c8       $unwind$??0SystemLogger@bento@@QEAA@XZ 00000001800142c8     bento_sdk:system_logger.obj
 0002:000032d0       $unwind$??1SystemLogger@bento@@UEAA@XZ 00000001800142d0     bento_sdk:system_logger.obj
 0002:000032d8       $unwind$?log@SystemLogger@bento@@UEAAXW4Type@LogLevel@2@PEBD1@Z 00000001800142d8     bento_sdk:system_logger.obj
 0002:000032e0       $unwind$??_GSystemLogger@bento@@UEAAPEAXI@Z 00000001800142e0     bento_sdk:system_logger.obj
 0002:000032e8       $unwind$?level_to_string@bento@@YAPEBDW4Type@LogLevel@1@@Z 00000001800142e8     bento_sdk:system_logger.obj
 0002:000032f0       $unwind$?pack_buffer@bento@@YAXAEAV?$Vector@D@1@IPEBD@Z 00000001800142f0     bento_sdk:stream.obj
 0002:000032f8       $unwind$?unpack_buffer@bento@@YAXAEAPEBDIPEAD@Z 00000001800142f8     bento_sdk:stream.obj
 0002:00003300       $unwind$atexit             0000000180014300     MSVCRTD:utility.obj
 0002:00003308       $unwind$_onexit            0000000180014308     MSVCRTD:utility.obj
 0002:00003310       $unwind$at_quick_exit      0000000180014310     MSVCRTD:utility.obj
 0002:00003318       $unwind$__scrt_is_nonwritable_in_current_image 0000000180014318     MSVCRTD:utility.obj
 0002:00003338       $unwind$__scrt_is_nonwritable_in_current_image$filt$0 0000000180014338     MSVCRTD:utility.obj
 0002:00003340       $unwind$__scrt_acquire_startup_lock 0000000180014340     MSVCRTD:utility.obj
 0002:00003348       $unwind$__scrt_release_startup_lock 0000000180014348     MSVCRTD:utility.obj
 0002:00003350       $unwind$__scrt_initialize_crt 0000000180014350     MSVCRTD:utility.obj
 0002:00003358       $unwind$__scrt_uninitialize_crt 0000000180014358     MSVCRTD:utility.obj
 0002:00003360       $unwind$__scrt_initialize_onexit_tables 0000000180014360     MSVCRTD:utility.obj
 0002:0000336c       $unwind$__scrt_dllmain_exception_filter 000000018001436c     MSVCRTD:utility.obj
 0002:00003374       $unwind$__scrt_dllmain_before_initialize_c 0000000180014374     MSVCRTD:utility.obj
 0002:0000337c       $unwind$__scrt_dllmain_after_initialize_c 000000018001437c     MSVCRTD:utility.obj
 0002:00003384       $unwind$__scrt_dllmain_uninitialize_c 0000000180014384     MSVCRTD:utility.obj
 0002:0000338c       $unwind$__scrt_dllmain_uninitialize_critical 000000018001438c     MSVCRTD:utility.obj
 0002:00003394       $unwind$__scrt_dllmain_crt_thread_attach 0000000180014394     MSVCRTD:utility.obj
 0002:0000339c       $unwind$__scrt_dllmain_crt_thread_detach 000000018001439c     MSVCRTD:utility.obj
 0002:000033a4       $unwind$?configure_argv@__scrt_narrow_argv_policy@@SAHXZ 00000001800143a4     MSVCRTD:utility.obj
 0002:000033ac       $unwind$?initialize_environment@__scrt_narrow_environment_policy@@SAHXZ 00000001800143ac     MSVCRTD:utility.obj
 0002:000033b4       $unwind$?is_potentially_valid_image_base@@YA_NQEAX@Z 00000001800143b4     MSVCRTD:utility.obj
 0002:000033bc       $unwind$?find_pe_section@@YAPEAU_IMAGE_SECTION_HEADER@@QEAE_K@Z 00000001800143bc     MSVCRTD:utility.obj
 0002:000033c4       $unwind$??$__crt_fast_decode_pointer@PEAP6AXXZ@@YAPEAP6AXXZQEAP6AXXZ@Z 00000001800143c4     MSVCRTD:utility.obj
 0002:000033cc       $unwind$??$__crt_fast_encode_pointer@PEAP6AXXZ@@YAPEAP6AXXZQEAP6AXXZ@Z 00000001800143cc     MSVCRTD:utility.obj
 0002:000033d4       $unwind$_RTC_Shutdown      00000001800143d4     MSVCRTD:_init_.obj
 0002:000033dc       $unwind$_RTC_InitBase      00000001800143dc     MSVCRTD:_init_.obj
 0002:000033e4       $unwind$?dllmain_crt_process_attach@@YAHQEAUHINSTANCE__@@QEAX@Z 00000001800143e4     MSVCRTD:dll_dllmain.obj
 0002:00003404       $unwind$?fin$0@?0??dllmain_crt_process_attach@@YAHQEAUHINSTANCE__@@QEAX@Z@4HA 0000000180014404     MSVCRTD:dll_dllmain.obj
 0002:0000340c       $unwind$?dllmain_crt_process_detach@@YAH_N@Z 000000018001440c     MSVCRTD:dll_dllmain.obj
 0002:0000342c       $unwind$?fin$0@?0??dllmain_crt_process_detach@@YAH_N@Z@4HA 000000018001442c     MSVCRTD:dll_dllmain.obj
 0002:00003434       $unwind$?dllmain_crt_dispatch@@YAHQEAUHINSTANCE__@@KQEAX@Z 0000000180014434     MSVCRTD:dll_dllmain.obj
 0002:0000343c       $unwind$_CRT_INIT          000000018001443c     MSVCRTD:dll_dllmain.obj
 0002:00003444       $unwind$?dllmain_raw@@YAHQEAUHINSTANCE__@@KQEAX@Z 0000000180014444     MSVCRTD:dll_dllmain.obj
 0002:0000344c       $unwind$?dllmain_dispatch@@YAHQEAUHINSTANCE__@@KQEAX@Z 000000018001444c     MSVCRTD:dll_dllmain.obj
 0002:0000346c       $unwind$?filt$0@?0??dllmain_dispatch@@YAHQEAUHINSTANCE__@@KQEAX@Z@4HA 000000018001446c     MSVCRTD:dll_dllmain.obj
 0002:00003474       $unwind$_DllMainCRTStartup 0000000180014474     MSVCRTD:dll_dllmain.obj
 0002:0000347c       $unwind$_RTC_CheckStackVars 000000018001447c     MSVCRTD:_stack_.obj
 0002:0000348c       $chain$0$_RTC_CheckStackVars 000000018001448c     MSVCRTD:_stack_.obj
 0002:000034a0       $chain$1$_RTC_CheckStackVars 00000001800144a0     MSVCRTD:_stack_.obj
 0002:000034b0       $unwind$_RTC_CheckStackVars2 00000001800144b0     MSVCRTD:_stack_.obj
 0002:000034bc       $chain$1$_RTC_CheckStackVars2 00000001800144bc     MSVCRTD:_stack_.obj
 0002:000034d4       $chain$2$_RTC_CheckStackVars2 00000001800144d4     MSVCRTD:_stack_.obj
 0002:000034e8       $chain$3$_RTC_CheckStackVars2 00000001800144e8     MSVCRTD:_stack_.obj
 0002:000034fc       $chain$4$_RTC_CheckStackVars2 00000001800144fc     MSVCRTD:_stack_.obj
 0002:0000350c       $chain$5$_RTC_CheckStackVars2 000000018001450c     MSVCRTD:_stack_.obj
 0002:0000351c       $chain$6$_RTC_CheckStackVars2 000000018001451c     MSVCRTD:_stack_.obj
 0002:0000352c       $unwind$_RTC_AllocaHelper  000000018001452c     MSVCRTD:_stack_.obj
 0002:00003534       $chain$0$_RTC_AllocaHelper 0000000180014534     MSVCRTD:_stack_.obj
 0002:00003548       $chain$1$_RTC_AllocaHelper 0000000180014548     MSVCRTD:_stack_.obj
 0002:00003558       $unwind$__GSHandlerCheckCommon 0000000180014558     MSVCRTD:_gshandler_.obj
 0002:00003560       $unwind$__GSHandlerCheck   0000000180014560     MSVCRTD:_gshandler_.obj
 0002:00003568       $xdatasym                  0000000180014568     MSVCRTD:_amdsecgs_.obj
 0002:0000356c       $unwind$??3@YAXPEAX_K@Z    000000018001456c     MSVCRTD:delete_scalar_size.obj
 0002:00003574       $unwind$__isa_available_init 0000000180014574     MSVCRTD:_cpu_disp_.obj
 0002:00003584       $unwind$__scrt_is_ucrt_dll_in_use 0000000180014584     MSVCRTD:ucrt_detection.obj
 0002:0000358c       $unwind$__scrt_get_show_window_mode 000000018001458c     MSVCRTD:utility_desktop.obj
 0002:00003598       $unwind$__scrt_is_managed_app 0000000180014598     MSVCRTD:utility_desktop.obj
 0002:000035a0       $unwind$__scrt_initialize_mta 00000001800145a0     MSVCRTD:utility_desktop.obj
 0002:000035a8       $unwind$__scrt_set_unhandled_exception_filter 00000001800145a8     MSVCRTD:utility_desktop.obj
 0002:000035b0       $unwind$__scrt_fastfail    00000001800145b0     MSVCRTD:utility_desktop.obj
 0002:000035bc       $unwind$__scrt_unhandled_exception_filter 00000001800145bc     MSVCRTD:utility_desktop.obj
 0002:000035c4       $unwind$ReadNoFence64      00000001800145c4     MSVCRTD:guard_support.obj
 0002:000035cc       $unwind$ReadPointerNoFence 00000001800145cc     MSVCRTD:guard_support.obj
 0002:000035d4       $unwind$_guard_icall_checks_enforced 00000001800145d4     MSVCRTD:guard_support.obj
 0002:000035dc       $unwind$__security_init_cookie 00000001800145dc     MSVCRTD:gs_support.obj
 0002:000035e4       $unwind$__get_entropy      00000001800145e4     MSVCRTD:gs_support.obj
 0002:000035ec       $unwind$DllMain            00000001800145ec     MSVCRTD:dll_dllmain_stub.obj
 0002:000035f4       $unwind$?__scrt_initialize_type_info@@YAXXZ 00000001800145f4     MSVCRTD:tncleanup.obj
 0002:000035fc       $unwind$?__scrt_uninitialize_type_info@@YAXXZ 00000001800145fc     MSVCRTD:tncleanup.obj
 0002:00003604       $unwind$__scrt_initialize_default_local_stdio_options 0000000180014604     MSVCRTD:default_local_stdio_options.obj
 0002:0000360c       $unwind$_RTC_Initialize    000000018001460c     MSVCRTD:_initsect_.obj
 0002:00003618       $unwind$_RTC_Terminate     0000000180014618     MSVCRTD:_initsect_.obj
 0002:00003624       $unwind$_RTC_UninitUse     0000000180014624     MSVCRTD:_error_.obj
 0002:0000363c       $unwind$?_RTC_StackFailure@@YAXPEAXPEBD@Z 000000018001463c     MSVCRTD:_error_.obj
 0002:00003658       $unwind$?_RTC_AllocaFailure@@YAXPEAXPEAU_RTC_ALLOCA_NODE@@H@Z 0000000180014658     MSVCRTD:_error_.obj
 0002:00003670       $chain$0$?_RTC_AllocaFailure@@YAXPEAXPEAU_RTC_ALLOCA_NODE@@H@Z 0000000180014670     MSVCRTD:_error_.obj
 0002:00003684       $chain$1$?_RTC_AllocaFailure@@YAXPEAXPEAU_RTC_ALLOCA_NODE@@H@Z 0000000180014684     MSVCRTD:_error_.obj
 0002:00003694       $unwind$_vsprintf_s_l      0000000180014694     MSVCRTD:_error_.obj
 0002:000036a8       $unwind$sprintf_s          00000001800146a8     MSVCRTD:_error_.obj
 0002:000036b0       $unwind$?notify_debugger@@YAXAEBUtagEXCEPTION_VISUALCPP_DEBUG_INFO@@@Z 00000001800146b0     MSVCRTD:_error_.obj
 0002:000036d0       $unwind$?filt$0@?0??notify_debugger@@YAXAEBUtagEXCEPTION_VISUALCPP_DEBUG_INFO@@@Z@4HA 00000001800146d0     MSVCRTD:_error_.obj
 0002:000036d8       $unwind$?DebuggerProbe@@YA_NK@Z 00000001800146d8     MSVCRTD:_error_.obj
 0002:000036e0       $unwind$?DebuggerRuntime@@YA_NKHPEAXPEB_W@Z 00000001800146e0     MSVCRTD:_error_.obj
 0002:000036e8       $unwind$?failwithmessage@@YAXPEAXHHPEBD@Z 00000001800146e8     MSVCRTD:_error_.obj
 0002:0000370c       $unwind$?_getMemBlockDataString@@YAXPEAD0PEBD_K@Z 000000018001470c     MSVCRTD:_error_.obj
 0002:0000371c       $chain$3$?_getMemBlockDataString@@YAXPEAD0PEBD_K@Z 000000018001471c     MSVCRTD:_error_.obj
 0002:0000373c       $chain$4$?_getMemBlockDataString@@YAXPEAD0PEBD_K@Z 000000018001473c     MSVCRTD:_error_.obj
 0002:0000374c       $unwind$__report_securityfailure 000000018001474c     MSVCRTD:gs_report.obj
 0002:00003754       $unwind$__report_securityfailureEx 0000000180014754     MSVCRTD:gs_report.obj
 0002:0000375c       $unwind$__report_rangecheckfailure 000000018001475c     MSVCRTD:gs_report.obj
 0002:00003764       $unwind$__report_gsfailure 0000000180014764     MSVCRTD:gs_report.obj
 0002:0000376c       $unwind$capture_current_context 000000018001476c     MSVCRTD:gs_report.obj
 0002:00003774       $unwind$capture_previous_context 0000000180014774     MSVCRTD:gs_report.obj
 0002:0000377c       $unwind$__raise_securityfailure 000000018001477c     MSVCRTD:gs_report.obj
 0002:00003784       $unwind$??3@YAXPEAX@Z      0000000180014784     MSVCRTD:delete_scalar.obj
 0002:00003790       $xdatasym                  0000000180014790     MSVCRTD:_guard_dispatch_.obj
 0002:00003794       $unwind$?_RTC_GetSrcLine@@YAHPEAEPEA_WKPEAH1K@Z 0000000180014794     MSVCRTD:_pdblkup_.obj
 0002:000037ac       $unwind$?GetPdbDllFromInstallPath@@YAPEAUHINSTANCE__@@XZ 00000001800147ac     MSVCRTD:_pdblkup_.obj
 0002:000037d0       $unwind$?GetPdbDllPathFromFilePath@@YAHPEB_WPEA_W_K@Z 00000001800147d0     MSVCRTD:_pdblkup_.obj
 0002:000037e8       $unwind$?GetPdbDll@@YAPEAUHINSTANCE__@@XZ 00000001800147e8     MSVCRTD:_pdblkup_.obj
 0002:00003800       .edata                     0000000180014800     rcu_dylib.exp
 0002:00003828       rgpv                       0000000180014828     rcu_dylib.exp
 0002:00003850       rgszName                   0000000180014850     rcu_dylib.exp
 0002:00003878       rgwOrd                     0000000180014878     rcu_dylib.exp
 0002:0000388c       szName                     000000018001488c     rcu_dylib.exp
 0002:0000389a       $N00001                    000000018001489a     rcu_dylib.exp
 0002:000038af       $N00002                    00000001800148af     rcu_dylib.exp
 0002:000038ca       $N00003                    00000001800148ca     rcu_dylib.exp
 0002:000038db       $N00004                    00000001800148db     rcu_dylib.exp
 0002:000038f1       $N00005                    00000001800148f1     rcu_dylib.exp
 0002:0000390d       $N00006                    000000018001490d     rcu_dylib.exp
 0002:0000391f       $N00007                    000000018001491f     rcu_dylib.exp
 0002:0000393b       $N00008                    000000018001493b     rcu_dylib.exp
 0002:00003953       $N00009                    0000000180014953     rcu_dylib.exp
 0002:0000396d       $N00010                    000000018001496d     rcu_dylib.exp
 0002:00003e72       .idata$6                   0000000180014e72     embree3:embree3.dll
 0002:000041d4       .idata$6                   00000001800151d4     msvcprtd:MSVCP140D.dll
 0002:00004228       .idata$6                   0000000180015228     VCOMPD:VCOMP140D.DLL
 0002:0000431a       .idata$6                   000000018001531a     vcruntimed:VCRUNTIME140D.dll
 0002:00004518       .idata$6                   0000000180015518     ucrtd:ucrtbased.dll
 0002:0000475a       .idata$6                   000000018001575a     kernel32:KERNEL32.dll
 0003:00000060       ?_base_allocator@@3VSystemAllocator@bento@@A 0000000180016060     allocator_c_api.obj
 0003:00000068       ?_base_allocator@@3VSystemAllocator@bento@@A 0000000180016068     scene_c_api.obj
 0003:00000088       ?is_initialized_as_dll@@3_NA 0000000180016088     MSVCRTD:utility.obj
 0003:00000089       ?module_local_atexit_table_initialized@@3_NA 0000000180016089     MSVCRTD:utility.obj
 0003:00000090       ?module_local_atexit_table@@3U_onexit_table_t@@A 0000000180016090     MSVCRTD:utility.obj
 0003:000000a8       ?module_local_at_quick_exit_table@@3U_onexit_table_t@@A 00000001800160a8     MSVCRTD:utility.obj
 0003:000000c0       ?init@?1??_RTC_InitBase@@9@4_NA 00000001800160c0     MSVCRTD:_init_.obj
 0003:000000c4       ?__proc_attached@@3HA      00000001800160c4     MSVCRTD:dll_dllmain.obj
 0003:000000d0       ?_RTC_ErrorReportFunc@@3P6AHHPEBDH00ZZEA 00000001800160d0     MSVCRTD:_userapi_.obj
 0003:000000d8       ?_RTC_ErrorReportFuncW@@3P6AHHPEB_WH00ZZEA 00000001800160d8     MSVCRTD:_userapi_.obj
 0003:00000100       GS_ExceptionRecord         0000000180016100     MSVCRTD:gs_report.obj
 0003:000001a0       GS_ContextRecord           00000001800161a0     MSVCRTD:gs_report.obj
 0003:00000670       ?mspdb@@3PEAUHINSTANCE__@@EA 0000000180016670     MSVCRTD:_pdblkup_.obj
 0003:00000678       ?alreadyTried@?1??GetPdbDll@@YAPEAUHINSTANCE__@@XZ@4_NA 0000000180016678     MSVCRTD:_pdblkup_.obj
 0003:00000679       ?PDBOK@?1??_RTC_GetSrcLine@@YAHPEAEPEA_WKPEAH1K@Z@4_NA 0000000180016679     MSVCRTD:_pdblkup_.obj
 0004:00000000       $pdata$rcu_create_allocator 0000000180017000     allocator_c_api.obj
 0004:0000000c       $pdata$rcu_destroy_allocator 000000018001700c     allocator_c_api.obj
 0004:00000018       $pdata$??__E_base_allocator@@YAXXZ 0000000180017018     allocator_c_api.obj
 0004:00000024       $pdata$??__F_base_allocator@@YAXXZ 0000000180017024     allocator_c_api.obj
 0004:00000030       $pdata$rcu_create_raycast_manager 0000000180017030     raycast_manager_c_api.obj
 0004:0000003c       $pdata$rcu_raycast_manager_setup 000000018001703c     raycast_manager_c_api.obj
 0004:00000048       $pdata$rcu_raycast_manager_release 0000000180017048     raycast_manager_c_api.obj
 0004:00000054       $pdata$rcu_raycast_manager_run 0000000180017054     raycast_manager_c_api.obj
 0004:00000060       $pdata$rcu_destroy_raycast_manager 0000000180017060     raycast_manager_c_api.obj
 0004:0000006c       $pdata$rcu_create_scene    000000018001706c     scene_c_api.obj
 0004:00000078       $pdata$rcu_scene_append_geometry 0000000180017078     scene_c_api.obj
 0004:00000084       $pdata$rcu_destroy_scene   0000000180017084     scene_c_api.obj
 0004:00000090       $pdata$??__E_base_allocator@@YAXXZ 0000000180017090     scene_c_api.obj
 0004:0000009c       $pdata$??__F_base_allocator@@YAXXZ 000000018001709c     scene_c_api.obj
 0004:000000a8       $pdata$??0TRaycastManager@rcu@@QEAA@AEAVIAllocator@bento@@@Z 00000001800170a8     rcu_sdk:raycast_manager.obj
 0004:000000b4       $pdata$?dtor$0@?0???0TRaycastManager@rcu@@QEAA@AEAVIAllocator@bento@@@Z@4HA 00000001800170b4     rcu_sdk:raycast_manager.obj
 0004:000000c0       $pdata$?dtor$1@?0???0TRaycastManager@rcu@@QEAA@AEAVIAllocator@bento@@@Z@4HA 00000001800170c0     rcu_sdk:raycast_manager.obj
 0004:000000cc       $pdata$?dtor$2@?0???0TRaycastManager@rcu@@QEAA@AEAVIAllocator@bento@@@Z@4HA 00000001800170cc     rcu_sdk:raycast_manager.obj
 0004:000000d8       $pdata$??1TRaycastManager@rcu@@QEAA@XZ 00000001800170d8     rcu_sdk:raycast_manager.obj
 0004:000000e4       $pdata$?setup@TRaycastManager@rcu@@QEAAXAEBUTScene@2@@Z 00000001800170e4     rcu_sdk:raycast_manager.obj
 0004:000000f0       $pdata$?release@TRaycastManager@rcu@@QEAAXXZ 00000001800170f0     rcu_sdk:raycast_manager.obj
 0004:000000fc       $pdata$?run@TRaycastManager@rcu@@QEAAXPEBUTRay@2@PEAUTIntersection@2@I@Z 00000001800170fc     rcu_sdk:raycast_manager.obj
 0004:00000108       $pdata$??0?$Vector@I@bento@@QEAA@AEAVIAllocator@1@@Z 0000000180017108     rcu_sdk:raycast_manager.obj
 0004:00000114       $pdata$??1?$Vector@I@bento@@QEAA@XZ 0000000180017114     rcu_sdk:raycast_manager.obj
 0004:00000120       $pdata$?resize@?$Vector@I@bento@@QEAAXI@Z 0000000180017120     rcu_sdk:raycast_manager.obj
 0004:0000012c       $pdata$?free@?$Vector@I@bento@@QEAAXXZ 000000018001712c     rcu_sdk:raycast_manager.obj
 0004:00000138       $pdata$?clear@?$Vector@I@bento@@QEAAXXZ 0000000180017138     rcu_sdk:raycast_manager.obj
 0004:00000144       $pdata$?reserve@?$Vector@I@bento@@QEAAXI@Z 0000000180017144     rcu_sdk:raycast_manager.obj
 0004:00000150       $pdata$??0?$Vector@URTCRayHit16@@@bento@@QEAA@AEAVIAllocator@1@@Z 0000000180017150     rcu_sdk:raycast_manager.obj
 0004:0000015c       $pdata$??1?$Vector@URTCRayHit16@@@bento@@QEAA@XZ 000000018001715c     rcu_sdk:raycast_manager.obj
 0004:00000168       $pdata$?resize@?$Vector@URTCRayHit16@@@bento@@QEAAXI@Z 0000000180017168     rcu_sdk:raycast_manager.obj
 0004:00000174       $pdata$?free@?$Vector@URTCRayHit16@@@bento@@QEAAXXZ 0000000180017174     rcu_sdk:raycast_manager.obj
 0004:00000180       $pdata$?clear@?$Vector@URTCRayHit16@@@bento@@QEAAXXZ 0000000180017180     rcu_sdk:raycast_manager.obj
 0004:0000018c       $pdata$?reserve@?$Vector@URTCRayHit16@@@bento@@QEAAXI@Z 000000018001718c     rcu_sdk:raycast_manager.obj
 0004:00000198       $pdata$??0?$Vector@URTCRayHit@@@bento@@QEAA@AEAVIAllocator@1@I@Z 0000000180017198     rcu_sdk:raycast_manager.obj
 0004:000001a4       $pdata$??1?$Vector@URTCRayHit@@@bento@@QEAA@XZ 00000001800171a4     rcu_sdk:raycast_manager.obj
 0004:000001b0       $pdata$?resize@?$Vector@URTCRayHit@@@bento@@QEAAXI@Z 00000001800171b0     rcu_sdk:raycast_manager.obj
 0004:000001bc       $pdata$?free@?$Vector@URTCRayHit@@@bento@@QEAAXXZ 00000001800171bc     rcu_sdk:raycast_manager.obj
 0004:000001c8       $pdata$?clear@?$Vector@URTCRayHit@@@bento@@QEAAXXZ 00000001800171c8     rcu_sdk:raycast_manager.obj
 0004:000001d4       $pdata$?reserve@?$Vector@URTCRayHit@@@bento@@QEAAXI@Z 00000001800171d4     rcu_sdk:raycast_manager.obj
 0004:000001e0       $pdata$?error_handler@rcu@@YAXPEAXW4RTCError@@PEBD@Z 00000001800171e0     rcu_sdk:raycast_manager.obj
 0004:000001ec       $pdata$?run$omp$1@TRaycastManager@rcu@@QEAAXPEBUTRay@2@PEAUTIntersection@2@I@Z 00000001800171ec     rcu_sdk:raycast_manager.obj
 0004:000001f8       $pdata$?__empty_global_delete@@YAXPEAX@Z 00000001800171f8     rcu_sdk:scene.obj
 0004:00000204       $pdata$?__empty_global_delete@@YAXPEAX_K@Z 0000000180017204     rcu_sdk:scene.obj
 0004:00000210       $pdata$??1?$Vector@D@bento@@QEAA@XZ 0000000180017210     rcu_sdk:scene.obj
 0004:0000021c       $pdata$?free@?$Vector@D@bento@@QEAAXXZ 000000018001721c     rcu_sdk:scene.obj
 0004:00000228       $pdata$?clear@?$Vector@D@bento@@QEAAXXZ 0000000180017228     rcu_sdk:scene.obj
 0004:00000234       $pdata$??1DynamicString@bento@@QEAA@XZ 0000000180017234     rcu_sdk:scene.obj
 0004:00000240       $pdata$??0TGeometry@rcu@@QEAA@AEAVIAllocator@bento@@@Z 0000000180017240     rcu_sdk:scene.obj
 0004:0000024c       $pdata$?dtor$0@?0???0TGeometry@rcu@@QEAA@AEAVIAllocator@bento@@@Z@4HA 000000018001724c     rcu_sdk:scene.obj
 0004:00000258       $pdata$?dtor$1@?0???0TGeometry@rcu@@QEAA@AEAVIAllocator@bento@@@Z@4HA 0000000180017258     rcu_sdk:scene.obj
 0004:00000264       $pdata$?dtor$2@?0???0TGeometry@rcu@@QEAA@AEAVIAllocator@bento@@@Z@4HA 0000000180017264     rcu_sdk:scene.obj
 0004:00000270       $pdata$??0?$Vector@UVector3@bento@@@bento@@QEAA@AEAVIAllocator@1@@Z 0000000180017270     rcu_sdk:scene.obj
 0004:0000027c       $pdata$??1?$Vector@UVector3@bento@@@bento@@QEAA@XZ 000000018001727c     rcu_sdk:scene.obj
 0004:00000288       $pdata$?resize@?$Vector@UVector3@bento@@@bento@@QEAAXI@Z 0000000180017288     rcu_sdk:scene.obj
 0004:00000294       $pdata$?free@?$Vector@UVector3@bento@@@bento@@QEAAXXZ 0000000180017294     rcu_sdk:scene.obj
 0004:000002a0       $pdata$?clear@?$Vector@UVector3@bento@@@bento@@QEAAXXZ 00000001800172a0     rcu_sdk:scene.obj
 0004:000002ac       $pdata$?reserve@?$Vector@UVector3@bento@@@bento@@QEAAXI@Z 00000001800172ac     rcu_sdk:scene.obj
 0004:000002b8       $pdata$??0?$Vector@UVector2@bento@@@bento@@QEAA@AEAVIAllocator@1@@Z 00000001800172b8     rcu_sdk:scene.obj
 0004:000002c4       $pdata$??1?$Vector@UVector2@bento@@@bento@@QEAA@XZ 00000001800172c4     rcu_sdk:scene.obj
 0004:000002d0       $pdata$?resize@?$Vector@UVector2@bento@@@bento@@QEAAXI@Z 00000001800172d0     rcu_sdk:scene.obj
 0004:000002dc       $pdata$?free@?$Vector@UVector2@bento@@@bento@@QEAAXXZ 00000001800172dc     rcu_sdk:scene.obj
 0004:000002e8       $pdata$?clear@?$Vector@UVector2@bento@@@bento@@QEAAXXZ 00000001800172e8     rcu_sdk:scene.obj
 0004:000002f4       $pdata$?reserve@?$Vector@UVector2@bento@@@bento@@QEAAXI@Z 00000001800172f4     rcu_sdk:scene.obj
 0004:00000300       $pdata$??0?$Vector@UIVector3@bento@@@bento@@QEAA@AEAVIAllocator@1@@Z 0000000180017300     rcu_sdk:scene.obj
 0004:0000030c       $pdata$?resize@?$Vector@UIVector3@bento@@@bento@@QEAAXI@Z 000000018001730c     rcu_sdk:scene.obj
 0004:00000318       $pdata$?clear@?$Vector@UIVector3@bento@@@bento@@QEAAXXZ 0000000180017318     rcu_sdk:scene.obj
 0004:00000324       $pdata$?reserve@?$Vector@UIVector3@bento@@@bento@@QEAAXI@Z 0000000180017324     rcu_sdk:scene.obj
 0004:00000330       $pdata$??0TScene@rcu@@QEAA@AEAVIAllocator@bento@@@Z 0000000180017330     rcu_sdk:scene.obj
 0004:0000033c       $pdata$?dtor$0@?0???0TScene@rcu@@QEAA@AEAVIAllocator@bento@@@Z@4HA 000000018001733c     rcu_sdk:scene.obj
 0004:00000348       $pdata$??0?$Vector@UTGeometry@rcu@@@bento@@QEAA@AEAVIAllocator@1@@Z 0000000180017348     rcu_sdk:scene.obj
 0004:00000354       $pdata$?reserve@?$Vector@UTGeometry@rcu@@@bento@@QEAAXI@Z 0000000180017354     rcu_sdk:scene.obj
 0004:00000360       $pdata$?extend@?$Vector@UTGeometry@rcu@@@bento@@QEAAAEAUTGeometry@rcu@@XZ 0000000180017360     rcu_sdk:scene.obj
 0004:0000036c       $pdata$?append_geometry@rcu@@YAXAEAUTScene@1@IIPEAM11IPEAHIPEBM@Z 000000018001736c     rcu_sdk:scene.obj
 0004:00000378       $pdata$??0SystemAllocator@bento@@QEAA@XZ 0000000180017378     bento_sdk:system_allocator.obj
 0004:00000384       $pdata$??1SystemAllocator@bento@@UEAA@XZ 0000000180017384     bento_sdk:system_allocator.obj
 0004:00000390       $pdata$?allocate@SystemAllocator@bento@@UEAAPEAX_K0@Z 0000000180017390     bento_sdk:system_allocator.obj
 0004:0000039c       $pdata$?reallocate@SystemAllocator@bento@@UEAAPEAXPEAX_K11@Z 000000018001739c     bento_sdk:system_allocator.obj
 0004:000003a8       $pdata$?deallocate@SystemAllocator@bento@@UEAAXPEAX@Z 00000001800173a8     bento_sdk:system_allocator.obj
 0004:000003b4       $pdata$??_GSystemAllocator@bento@@UEAAPEAXI@Z 00000001800173b4     bento_sdk:system_allocator.obj
 0004:000003c0       $pdata$?__handle_fail@bento@@YAXPEBD0H@Z 00000001800173c0     bento_sdk:security.obj
 0004:000003cc       $pdata$?print_trace@bento@@YAXXZ 00000001800173cc     bento_sdk:security.obj
 0004:000003d8       $pdata$?default_logger@bento@@YAPEAVILogger@1@XZ 00000001800173d8     bento_sdk:log.obj
 0004:000003e4       $pdata$?set_default_logger@bento@@YAXPEAVILogger@1@@Z 00000001800173e4     bento_sdk:log.obj
 0004:000003f0       $pdata$?reset_logger@bento@@YAXXZ 00000001800173f0     bento_sdk:log.obj
 0004:000003fc       $pdata$??__E__default_system_logger@bento@@YAXXZ 00000001800173fc     bento_sdk:log.obj
 0004:00000408       $pdata$??__F__default_system_logger@bento@@YAXXZ 0000000180017408     bento_sdk:log.obj
 0004:00000414       $pdata$?strlen32@bento@@YAIPEBD@Z 0000000180017414     bento_sdk:dynamic_string.obj
 0004:00000420       $pdata$?find_last_of@bento@@YAIPEBDD@Z 0000000180017420     bento_sdk:dynamic_string.obj
 0004:0000042c       $pdata$??0DynamicString@bento@@QEAA@AEAVIAllocator@1@@Z 000000018001742c     bento_sdk:dynamic_string.obj
 0004:00000438       $pdata$?dtor$0@?0???0DynamicString@bento@@QEAA@AEAVIAllocator@1@@Z@4HA 0000000180017438     bento_sdk:dynamic_string.obj
 0004:00000444       $pdata$??0DynamicString@bento@@QEAA@AEAVIAllocator@1@PEBD@Z 0000000180017444     bento_sdk:dynamic_string.obj
 0004:00000450       $pdata$?dtor$0@?0???0DynamicString@bento@@QEAA@AEAVIAllocator@1@PEBD@Z@4HA 0000000180017450     bento_sdk:dynamic_string.obj
 0004:0000045c       $pdata$??0DynamicString@bento@@QEAA@AEAVIAllocator@1@I@Z 000000018001745c     bento_sdk:dynamic_string.obj
 0004:00000468       $pdata$?dtor$0@?0???0DynamicString@bento@@QEAA@AEAVIAllocator@1@I@Z@4HA 0000000180017468     bento_sdk:dynamic_string.obj
 0004:00000474       $pdata$??0DynamicString@bento@@QEAA@AEBV01@@Z 0000000180017474     bento_sdk:dynamic_string.obj
 0004:00000480       $pdata$?dtor$0@?0???0DynamicString@bento@@QEAA@AEBV01@@Z@4HA 0000000180017480     bento_sdk:dynamic_string.obj
 0004:0000048c       $pdata$?resize@DynamicString@bento@@QEAAXI@Z 000000018001748c     bento_sdk:dynamic_string.obj
 0004:00000498       $pdata$?size@DynamicString@bento@@QEBAIXZ 0000000180017498     bento_sdk:dynamic_string.obj
 0004:000004a4       $pdata$??4DynamicString@bento@@QEAAAEAV01@AEBV01@@Z 00000001800174a4     bento_sdk:dynamic_string.obj
 0004:000004b0       $pdata$??4DynamicString@bento@@QEAAAEAV01@PEBD@Z 00000001800174b0     bento_sdk:dynamic_string.obj
 0004:000004bc       $pdata$??YDynamicString@bento@@QEAAAEAV01@PEBD@Z 00000001800174bc     bento_sdk:dynamic_string.obj
 0004:000004c8       $pdata$??YDynamicString@bento@@QEAAAEAV01@AEBV01@@Z 00000001800174c8     bento_sdk:dynamic_string.obj
 0004:000004d4       $pdata$??8DynamicString@bento@@QEBA_NPEBD@Z 00000001800174d4     bento_sdk:dynamic_string.obj
 0004:000004e0       $pdata$??9DynamicString@bento@@QEBA_NPEBD@Z 00000001800174e0     bento_sdk:dynamic_string.obj
 0004:000004ec       $pdata$??0?$Vector@D@bento@@QEAA@AEAVIAllocator@1@@Z 00000001800174ec     bento_sdk:dynamic_string.obj
 0004:000004f8       $pdata$?resize@?$Vector@D@bento@@QEAAXI@Z 00000001800174f8     bento_sdk:dynamic_string.obj
 0004:00000504       $pdata$?reserve@?$Vector@D@bento@@QEAAXI@Z 0000000180017504     bento_sdk:dynamic_string.obj
 0004:00000510       $pdata$?to_lower_case@string@bento@@YAXAEAVDynamicString@2@@Z 0000000180017510     bento_sdk:dynamic_string.obj
 0004:0000051c       $pdata$?substr@string@bento@@YA?AVDynamicString@2@AEBV32@II@Z 000000018001751c     bento_sdk:dynamic_string.obj
 0004:00000528       $pdata$?dtor$0@?0??substr@string@bento@@YA?AVDynamicString@2@AEBV32@II@Z@4HA 0000000180017528     bento_sdk:dynamic_string.obj
 0004:00000534       $pdata$?pack_type@bento@@YAXAEAV?$Vector@D@1@AEBVDynamicString@1@@Z 0000000180017534     bento_sdk:dynamic_string.obj
 0004:00000540       $pdata$?unpack_type@bento@@YAXAEAPEBDAEAVDynamicString@1@@Z 0000000180017540     bento_sdk:dynamic_string.obj
 0004:0000054c       $pdata$??$pack_vector_bytes@D@bento@@YAXAEAV?$Vector@D@0@AEBV10@@Z 000000018001754c     bento_sdk:dynamic_string.obj
 0004:00000558       $pdata$??$unpack_vector_bytes@D@bento@@YAXAEAPEBDAEAV?$Vector@D@0@@Z 0000000180017558     bento_sdk:dynamic_string.obj
 0004:00000564       $pdata$??$pack_bytes@I@bento@@YAXAEAV?$Vector@D@0@AEBI@Z 0000000180017564     bento_sdk:dynamic_string.obj
 0004:00000570       $pdata$??$unpack_bytes@I@bento@@YAXAEAPEBDAEAI@Z 0000000180017570     bento_sdk:dynamic_string.obj
 0004:0000057c       $pdata$?matrix4@bento@@YAXAEAUMatrix4@1@PEAM@Z 000000018001757c     bento_sdk:matrix4.obj
 0004:00000588       $pdata$?SetIdentity@bento@@YAXAEAUMatrix4@1@@Z 0000000180017588     bento_sdk:matrix4.obj
 0004:00000594       $pdata$?ResetToZero@bento@@YAXAEAUMatrix4@1@@Z 0000000180017594     bento_sdk:matrix4.obj
 0004:000005a0       $pdata$?AsPerspective@bento@@YAXAEAUMatrix4@1@MMMM@Z 00000001800175a0     bento_sdk:matrix4.obj
 0004:000005ac       $pdata$?GetTranslate@bento@@YA?AUVector3@1@AEBUMatrix4@1@@Z 00000001800175ac     bento_sdk:matrix4.obj
 0004:000005b8       $pdata$?XAxis@bento@@YA?AUVector3@1@AEBUMatrix4@1@@Z 00000001800175b8     bento_sdk:matrix4.obj
 0004:000005c4       $pdata$?YAxis@bento@@YA?AUVector3@1@AEBUMatrix4@1@@Z 00000001800175c4     bento_sdk:matrix4.obj
 0004:000005d0       $pdata$?ZAxis@bento@@YA?AUVector3@1@AEBUMatrix4@1@@Z 00000001800175d0     bento_sdk:matrix4.obj
 0004:000005dc       $pdata$?XRow@bento@@YAPEBUVector4@1@AEBUMatrix4@1@@Z 00000001800175dc     bento_sdk:matrix4.obj
 0004:000005e8       $pdata$?YRow@bento@@YAPEBUVector4@1@AEBUMatrix4@1@@Z 00000001800175e8     bento_sdk:matrix4.obj
 0004:000005f4       $pdata$?ZRow@bento@@YAPEBUVector4@1@AEBUMatrix4@1@@Z 00000001800175f4     bento_sdk:matrix4.obj
 0004:00000600       $pdata$?WRow@bento@@YAPEBUVector4@1@AEBUMatrix4@1@@Z 0000000180017600     bento_sdk:matrix4.obj
 0004:0000060c       $pdata$?Det@bento@@YAMAEBUMatrix4@1@@Z 000000018001760c     bento_sdk:matrix4.obj
 0004:00000618       $pdata$?Inverse3x3@bento@@YA?AUMatrix3@1@AEBUMatrix4@1@@Z 0000000180017618     bento_sdk:matrix4.obj
 0004:00000624       $pdata$?Inverse@bento@@YA?AUMatrix4@1@AEBU21@@Z 0000000180017624     bento_sdk:matrix4.obj
 0004:00000630       $pdata$?Translate_M4@bento@@YA?AUMatrix4@1@AEBUVector4@1@@Z 0000000180017630     bento_sdk:matrix4.obj
 0004:0000063c       $pdata$?Translate_M4@bento@@YA?AUMatrix4@1@AEBUVector3@1@@Z 000000018001763c     bento_sdk:matrix4.obj
 0004:00000648       $pdata$?Rotate@bento@@YA?AUMatrix4@1@MAEBUVector3@1@@Z 0000000180017648     bento_sdk:matrix4.obj
 0004:00000654       $pdata$?ToTable@bento@@YAXAEBUMatrix4@1@PEAM@Z 0000000180017654     bento_sdk:matrix4.obj
 0004:00000660       $pdata$?RotateXAxis@bento@@YA?AUMatrix4@1@M@Z 0000000180017660     bento_sdk:matrix4.obj
 0004:0000066c       $pdata$?RotateYAxis@bento@@YA?AUMatrix4@1@M@Z 000000018001766c     bento_sdk:matrix4.obj
 0004:00000678       $pdata$?RotateZAxis@bento@@YA?AUMatrix4@1@M@Z 0000000180017678     bento_sdk:matrix4.obj
 0004:00000684       $pdata$?transpose@bento@@YA?AUMatrix4@1@AEBU21@@Z 0000000180017684     bento_sdk:matrix4.obj
 0004:00000690       $pdata$??Dbento@@YA?AUVector4@0@AEBUMatrix4@0@AEBU10@@Z 0000000180017690     bento_sdk:matrix4.obj
 0004:0000069c       $pdata$??Dbento@@YA?AUVector3@0@AEBUMatrix4@0@AEBU10@@Z 000000018001769c     bento_sdk:matrix4.obj
 0004:000006a8       $pdata$??Dbento@@YA?AUMatrix4@0@AEBU10@0@Z 00000001800176a8     bento_sdk:matrix4.obj
 0004:000006b4       $pdata$?Set@bento@@YAAEAUMatrix4@1@AEAU21@AEBU21@@Z 00000001800176b4     bento_sdk:matrix4.obj
 0004:000006c0       $pdata$??6bento@@YAAEAV?$basic_ostream@DU?$char_traits@D@std@@@std@@AEAV12@AEBUMatrix4@0@@Z 00000001800176c0     bento_sdk:matrix4.obj
 0004:000006cc       $pdata$??$fill_n@PEAMHM@std@@YAPEAMPEAMHAEBM@Z 00000001800176cc     bento_sdk:matrix4.obj
 0004:000006d8       $pdata$??$?6U?$char_traits@D@std@@@std@@YAAEAV?$basic_ostream@DU?$char_traits@D@std@@@0@AEAV10@PEBD@Z 00000001800176d8     bento_sdk:matrix4.obj
 0004:000006e4       $pdata$?dtor$0@?0???$?6U?$char_traits@D@std@@@std@@YAAEAV?$basic_ostream@DU?$char_traits@D@std@@@0@AEAV10@PEBD@Z@4HA 00000001800176e4     bento_sdk:matrix4.obj
 0004:000006f0       $pdata$??0_Sentry_base@?$basic_ostream@DU?$char_traits@D@std@@@std@@QEAA@AEAV12@@Z 00000001800176f0     bento_sdk:matrix4.obj
 0004:000006fc       $pdata$??1_Sentry_base@?$basic_ostream@DU?$char_traits@D@std@@@std@@QEAA@XZ 00000001800176fc     bento_sdk:matrix4.obj
 0004:00000708       $pdata$??0sentry@?$basic_ostream@DU?$char_traits@D@std@@@std@@QEAA@AEAV12@@Z 0000000180017708     bento_sdk:matrix4.obj
 0004:00000714       $pdata$?dtor$0@?0???0sentry@?$basic_ostream@DU?$char_traits@D@std@@@std@@QEAA@AEAV12@@Z@4HA 0000000180017714     bento_sdk:matrix4.obj
 0004:00000720       $pdata$??1sentry@?$basic_ostream@DU?$char_traits@D@std@@@std@@QEAA@XZ 0000000180017720     bento_sdk:matrix4.obj
 0004:0000072c       $pdata$??0IAllocator@bento@@QEAA@XZ 000000018001772c     bento_sdk:allocator.obj
 0004:00000738       $pdata$??1IAllocator@bento@@UEAA@XZ 0000000180017738     bento_sdk:allocator.obj
 0004:00000744       $pdata$??_GIAllocator@bento@@UEAAPEAXI@Z 0000000180017744     bento_sdk:allocator.obj
 0004:00000750       $pdata$??_GILogger@bento@@UEAAPEAXI@Z 0000000180017750     bento_sdk:system_logger.obj
 0004:0000075c       $pdata$??0SystemLogger@bento@@QEAA@XZ 000000018001775c     bento_sdk:system_logger.obj
 0004:00000768       $pdata$??1SystemLogger@bento@@UEAA@XZ 0000000180017768     bento_sdk:system_logger.obj
 0004:00000774       $pdata$?log@SystemLogger@bento@@UEAAXW4Type@LogLevel@2@PEBD1@Z 0000000180017774     bento_sdk:system_logger.obj
 0004:00000780       $pdata$??_GSystemLogger@bento@@UEAAPEAXI@Z 0000000180017780     bento_sdk:system_logger.obj
 0004:0000078c       $pdata$?level_to_string@bento@@YAPEBDW4Type@LogLevel@1@@Z 000000018001778c     bento_sdk:system_logger.obj
 0004:00000798       $pdata$?pack_buffer@bento@@YAXAEAV?$Vector@D@1@IPEBD@Z 0000000180017798     bento_sdk:stream.obj
 0004:000007a4       $pdata$?unpack_buffer@bento@@YAXAEAPEBDIPEAD@Z 00000001800177a4     bento_sdk:stream.obj
 0004:000007b0       $pdata$atexit              00000001800177b0     MSVCRTD:utility.obj
 0004:000007bc       $pdata$_onexit             00000001800177bc     MSVCRTD:utility.obj
 0004:000007c8       $pdata$at_quick_exit       00000001800177c8     MSVCRTD:utility.obj
 0004:000007d4       $pdata$__scrt_is_nonwritable_in_current_image 00000001800177d4     MSVCRTD:utility.obj
 0004:000007e0       $pdata$__scrt_is_nonwritable_in_current_image$filt$0 00000001800177e0     MSVCRTD:utility.obj
 0004:000007ec       $pdata$__scrt_acquire_startup_lock 00000001800177ec     MSVCRTD:utility.obj
 0004:000007f8       $pdata$__scrt_release_startup_lock 00000001800177f8     MSVCRTD:utility.obj
 0004:00000804       $pdata$__scrt_initialize_crt 0000000180017804     MSVCRTD:utility.obj
 0004:00000810       $pdata$__scrt_uninitialize_crt 0000000180017810     MSVCRTD:utility.obj
 0004:0000081c       $pdata$__scrt_initialize_onexit_tables 000000018001781c     MSVCRTD:utility.obj
 0004:00000828       $pdata$__scrt_dllmain_exception_filter 0000000180017828     MSVCRTD:utility.obj
 0004:00000834       $pdata$__scrt_dllmain_before_initialize_c 0000000180017834     MSVCRTD:utility.obj
 0004:00000840       $pdata$__scrt_dllmain_after_initialize_c 0000000180017840     MSVCRTD:utility.obj
 0004:0000084c       $pdata$__scrt_dllmain_uninitialize_c 000000018001784c     MSVCRTD:utility.obj
 0004:00000858       $pdata$__scrt_dllmain_uninitialize_critical 0000000180017858     MSVCRTD:utility.obj
 0004:00000864       $pdata$__scrt_dllmain_crt_thread_attach 0000000180017864     MSVCRTD:utility.obj
 0004:00000870       $pdata$__scrt_dllmain_crt_thread_detach 0000000180017870     MSVCRTD:utility.obj
 0004:0000087c       $pdata$?configure_argv@__scrt_narrow_argv_policy@@SAHXZ 000000018001787c     MSVCRTD:utility.obj
 0004:00000888       $pdata$?initialize_environment@__scrt_narrow_environment_policy@@SAHXZ 0000000180017888     MSVCRTD:utility.obj
 0004:00000894       $pdata$?is_potentially_valid_image_base@@YA_NQEAX@Z 0000000180017894     MSVCRTD:utility.obj
 0004:000008a0       $pdata$?find_pe_section@@YAPEAU_IMAGE_SECTION_HEADER@@QEAE_K@Z 00000001800178a0     MSVCRTD:utility.obj
 0004:000008ac       $pdata$??$__crt_fast_decode_pointer@PEAP6AXXZ@@YAPEAP6AXXZQEAP6AXXZ@Z 00000001800178ac     MSVCRTD:utility.obj
 0004:000008b8       $pdata$??$__crt_fast_encode_pointer@PEAP6AXXZ@@YAPEAP6AXXZQEAP6AXXZ@Z 00000001800178b8     MSVCRTD:utility.obj
 0004:000008c4       $pdata$_RTC_Shutdown       00000001800178c4     MSVCRTD:_init_.obj
 0004:000008d0       $pdata$_RTC_InitBase       00000001800178d0     MSVCRTD:_init_.obj
 0004:000008dc       $pdata$?dllmain_crt_process_attach@@YAHQEAUHINSTANCE__@@QEAX@Z 00000001800178dc     MSVCRTD:dll_dllmain.obj
 0004:000008e8       $pdata$?fin$0@?0??dllmain_crt_process_attach@@YAHQEAUHINSTANCE__@@QEAX@Z@4HA 00000001800178e8     MSVCRTD:dll_dllmain.obj
 0004:000008f4       $pdata$?dllmain_crt_process_detach@@YAH_N@Z 00000001800178f4     MSVCRTD:dll_dllmain.obj
 0004:00000900       $pdata$?fin$0@?0??dllmain_crt_process_detach@@YAH_N@Z@4HA 0000000180017900     MSVCRTD:dll_dllmain.obj
 0004:0000090c       $pdata$?dllmain_crt_dispatch@@YAHQEAUHINSTANCE__@@KQEAX@Z 000000018001790c     MSVCRTD:dll_dllmain.obj
 0004:00000918       $pdata$_CRT_INIT           0000000180017918     MSVCRTD:dll_dllmain.obj
 0004:00000924       $pdata$?dllmain_raw@@YAHQEAUHINSTANCE__@@KQEAX@Z 0000000180017924     MSVCRTD:dll_dllmain.obj
 0004:00000930       $pdata$?dllmain_dispatch@@YAHQEAUHINSTANCE__@@KQEAX@Z 0000000180017930     MSVCRTD:dll_dllmain.obj
 0004:0000093c       $pdata$?filt$0@?0??dllmain_dispatch@@YAHQEAUHINSTANCE__@@KQEAX@Z@4HA 000000018001793c     MSVCRTD:dll_dllmain.obj
 0004:00000948       $pdata$_DllMainCRTStartup  0000000180017948     MSVCRTD:dll_dllmain.obj
 0004:00000954       $pdata$_RTC_CheckStackVars 0000000180017954     MSVCRTD:_stack_.obj
 0004:00000960       $pdata$0$_RTC_CheckStackVars 0000000180017960     MSVCRTD:_stack_.obj
 0004:0000096c       $pdata$1$_RTC_CheckStackVars 000000018001796c     MSVCRTD:_stack_.obj
 0004:00000978       $pdata$_RTC_CheckStackVars2 0000000180017978     MSVCRTD:_stack_.obj
 0004:00000984       $pdata$1$_RTC_CheckStackVars2 0000000180017984     MSVCRTD:_stack_.obj
 0004:00000990       $pdata$2$_RTC_CheckStackVars2 0000000180017990     MSVCRTD:_stack_.obj
 0004:0000099c       $pdata$3$_RTC_CheckStackVars2 000000018001799c     MSVCRTD:_stack_.obj
 0004:000009a8       $pdata$4$_RTC_CheckStackVars2 00000001800179a8     MSVCRTD:_stack_.obj
 0004:000009b4       $pdata$5$_RTC_CheckStackVars2 00000001800179b4     MSVCRTD:_stack_.obj
 0004:000009c0       $pdata$6$_RTC_CheckStackVars2 00000001800179c0     MSVCRTD:_stack_.obj
 0004:000009cc       $pdata$_RTC_AllocaHelper   00000001800179cc     MSVCRTD:_stack_.obj
 0004:000009d8       $pdata$0$_RTC_AllocaHelper 00000001800179d8     MSVCRTD:_stack_.obj
 0004:000009e4       $pdata$1$_RTC_AllocaHelper 00000001800179e4     MSVCRTD:_stack_.obj
 0004:000009f0       $pdata$__GSHandlerCheckCommon 00000001800179f0     MSVCRTD:_gshandler_.obj
 0004:000009fc       $pdata$__GSHandlerCheck    00000001800179fc     MSVCRTD:_gshandler_.obj
 0004:00000a14       $pdata$??3@YAXPEAX_K@Z     0000000180017a14     MSVCRTD:delete_scalar_size.obj
 0004:00000a20       $pdata$__isa_available_init 0000000180017a20     MSVCRTD:_cpu_disp_.obj
 0004:00000a2c       $pdata$__scrt_is_ucrt_dll_in_use 0000000180017a2c     MSVCRTD:ucrt_detection.obj
 0004:00000a38       $pdata$__scrt_get_show_window_mode 0000000180017a38     MSVCRTD:utility_desktop.obj
 0004:00000a44       $pdata$__scrt_is_managed_app 0000000180017a44     MSVCRTD:utility_desktop.obj
 0004:00000a50       $pdata$__scrt_initialize_mta 0000000180017a50     MSVCRTD:utility_desktop.obj
 0004:00000a5c       $pdata$__scrt_set_unhandled_exception_filter 0000000180017a5c     MSVCRTD:utility_desktop.obj
 0004:00000a68       $pdata$__scrt_fastfail     0000000180017a68     MSVCRTD:utility_desktop.obj
 0004:00000a74       $pdata$__scrt_unhandled_exception_filter 0000000180017a74     MSVCRTD:utility_desktop.obj
 0004:00000a80       $pdata$ReadNoFence64       0000000180017a80     MSVCRTD:guard_support.obj
 0004:00000a8c       $pdata$ReadPointerNoFence  0000000180017a8c     MSVCRTD:guard_support.obj
 0004:00000a98       $pdata$_guard_icall_checks_enforced 0000000180017a98     MSVCRTD:guard_support.obj
 0004:00000aa4       $pdata$__security_init_cookie 0000000180017aa4     MSVCRTD:gs_support.obj
 0004:00000ab0       $pdata$__get_entropy       0000000180017ab0     MSVCRTD:gs_support.obj
 0004:00000abc       $pdata$DllMain             0000000180017abc     MSVCRTD:dll_dllmain_stub.obj
 0004:00000ac8       $pdata$?__scrt_initialize_type_info@@YAXXZ 0000000180017ac8     MSVCRTD:tncleanup.obj
 0004:00000ad4       $pdata$?__scrt_uninitialize_type_info@@YAXXZ 0000000180017ad4     MSVCRTD:tncleanup.obj
 0004:00000ae0       $pdata$__scrt_initialize_default_local_stdio_options 0000000180017ae0     MSVCRTD:default_local_stdio_options.obj
 0004:00000aec       $pdata$_RTC_Initialize     0000000180017aec     MSVCRTD:_initsect_.obj
 0004:00000af8       $pdata$_RTC_Terminate      0000000180017af8     MSVCRTD:_initsect_.obj
 0004:00000b04       $pdata$_RTC_UninitUse      0000000180017b04     MSVCRTD:_error_.obj
 0004:00000b10       $pdata$?_RTC_StackFailure@@YAXPEAXPEBD@Z 0000000180017b10     MSVCRTD:_error_.obj
 0004:00000b1c       $pdata$?_RTC_AllocaFailure@@YAXPEAXPEAU_RTC_ALLOCA_NODE@@H@Z 0000000180017b1c     MSVCRTD:_error_.obj
 0004:00000b28       $pdata$0$?_RTC_AllocaFailure@@YAXPEAXPEAU_RTC_ALLOCA_NODE@@H@Z 0000000180017b28     MSVCRTD:_error_.obj
 0004:00000b34       $pdata$1$?_RTC_AllocaFailure@@YAXPEAXPEAU_RTC_ALLOCA_NODE@@H@Z 0000000180017b34     MSVCRTD:_error_.obj
 0004:00000b40       $pdata$_vsprintf_s_l       0000000180017b40     MSVCRTD:_error_.obj
 0004:00000b4c       $pdata$sprintf_s           0000000180017b4c     MSVCRTD:_error_.obj
 0004:00000b58       $pdata$?notify_debugger@@YAXAEBUtagEXCEPTION_VISUALCPP_DEBUG_INFO@@@Z 0000000180017b58     MSVCRTD:_error_.obj
 0004:00000b64       $pdata$?filt$0@?0??notify_debugger@@YAXAEBUtagEXCEPTION_VISUALCPP_DEBUG_INFO@@@Z@4HA 0000000180017b64     MSVCRTD:_error_.obj
 0004:00000b70       $pdata$?DebuggerProbe@@YA_NK@Z 0000000180017b70     MSVCRTD:_error_.obj
 0004:00000b7c       $pdata$?DebuggerRuntime@@YA_NKHPEAXPEB_W@Z 0000000180017b7c     MSVCRTD:_error_.obj
 0004:00000b88       $pdata$?failwithmessage@@YAXPEAXHHPEBD@Z 0000000180017b88     MSVCRTD:_error_.obj
 0004:00000b94       $pdata$?_getMemBlockDataString@@YAXPEAD0PEBD_K@Z 0000000180017b94     MSVCRTD:_error_.obj
 0004:00000ba0       $pdata$3$?_getMemBlockDataString@@YAXPEAD0PEBD_K@Z 0000000180017ba0     MSVCRTD:_error_.obj
 0004:00000bac       $pdata$4$?_getMemBlockDataString@@YAXPEAD0PEBD_K@Z 0000000180017bac     MSVCRTD:_error_.obj
 0004:00000bb8       $pdata$__report_securityfailure 0000000180017bb8     MSVCRTD:gs_report.obj
 0004:00000bc4       $pdata$__report_securityfailureEx 0000000180017bc4     MSVCRTD:gs_report.obj
 0004:00000bd0       $pdata$__report_rangecheckfailure 0000000180017bd0     MSVCRTD:gs_report.obj
 0004:00000bdc       $pdata$__report_gsfailure  0000000180017bdc     MSVCRTD:gs_report.obj
 0004:00000be8       $pdata$capture_current_context 0000000180017be8     MSVCRTD:gs_report.obj
 0004:00000bf4       $pdata$capture_previous_context 0000000180017bf4     MSVCRTD:gs_report.obj
 0004:00000c00       $pdata$__raise_securityfailure 0000000180017c00     MSVCRTD:gs_report.obj
 0004:00000c0c       $pdata$??3@YAXPEAX@Z       0000000180017c0c     MSVCRTD:delete_scalar.obj
 0004:00000c24       $pdata$?_RTC_GetSrcLine@@YAHPEAEPEA_WKPEAH1K@Z 0000000180017c24     MSVCRTD:_pdblkup_.obj
 0004:00000c30       $pdata$?GetPdbDllFromInstallPath@@YAPEAUHINSTANCE__@@XZ 0000000180017c30     MSVCRTD:_pdblkup_.obj
 0004:00000c3c       $pdata$?GetPdbDllPathFromFilePath@@YAHPEB_WPEA_W_K@Z 0000000180017c3c     MSVCRTD:_pdblkup_.obj
 0004:00000c48       $pdata$?GetPdbDll@@YAPEAUHINSTANCE__@@XZ 0000000180017c48     MSVCRTD:_pdblkup_.obj
 0005:00000060       $R000000                   0000000180018060     * linker generated manifest res *
